(dp0
(I1483
I2640
tp1
I5
s(I3497
I141
tp2
I3
s(I602
I533
tp3
I1
s(I2410
I2334
tp4
I3
s(I609
I1177
tp5
I2
s(I2969
I1746
tp6
I5
s(I1340
I2647
tp7
I2
s(I1721
I399
tp8
I5
s(I614
I991
tp9
I2
s(I1040
I993
tp10
I6
s(I504
I526
tp11
I6
s(I1493
I1540
tp12
I5
s(I3516
I347
tp13
I1
s(I968
I988
tp14
I2
s(I2788
I1109
tp15
I4
s(I2681
I278
tp16
I2
s(I1418
I1372
tp17
I5
s(I2368
I1409
tp18
I2
s(I898
I407
tp19
I2
s(I3498
I2661
tp20
I1
s(I1851
I2497
tp21
I3
s(I3610
I347
tp22
I2
s(I1612
I814
tp23
I1
s(I2191
I2208
tp24
I3
s(I699
I339
tp25
I2
s(I1310
I2493
tp26
I4
s(I827
I333
tp27
I2
s(I1415
I1374
tp28
I5
s(I577
I2035
tp29
I1
s(I796
I814
tp30
I1
s(I622
I271
tp31
I6
s(I13
I20
tp32
I2
s(I1585
I1551
tp33
I4
s(I1676
I418
tp34
I3
s(I2057
I416
tp35
I3
s(I3656
I2498
tp36
I2
s(I1562
I419
tp37
I3
s(I1909
I395
tp38
I1
s(I681
I395
tp39
I2
s(I2455
I1409
tp40
I5
s(I2023
I416
tp41
I1
s(I762
I813
tp42
I1
s(I2279
I2318
tp43
I5
s(I46
I23
tp44
I2
s(I1704
I399
tp45
I5
s(I2777
I2890
tp46
I3
s(I129
I140
tp47
I2
s(I1494
I1540
tp48
I1
s(I115
I148
tp49
I4
s(I2308
I2319
tp50
I2
s(I2161
I416
tp51
I3
s(I939
I988
tp52
I3
s(I1331
I2767
tp53
I3
s(I2780
I2867
tp54
I6
s(I642
I409
tp55
I5
s(I2276
I2322
tp56
I3
s(I2680
I534
tp57
I3
s(I2738
I1374
tp58
I4
s(I974
I407
tp59
I2
s(I2971
I1155
tp60
I2
s(I2351
I401
tp61
I2
s(I2011
I416
tp62
I3
s(I2206
I2208
tp63
I1
s(I2355
I401
tp64
I2
s(I2376
I1159
tp65
I1
s(I2923
I2332
tp66
I1
s(I1778
I1746
tp67
I8
s(I756
I331
tp68
I1
s(I350
I342
tp69
I4
s(I188
I21
tp70
I3
s(I2784
I2889
tp71
I1
s(I2856
I2867
tp72
I5
s(I2525
I1095
tp73
I1
s(I118
I1096
tp74
I1
s(I3494
I141
tp75
I2
s(I752
I814
tp76
I2
s(I1839
I2497
tp77
I8
s(I1565
I336
tp78
I3
s(I2449
I2332
tp79
I1
s(I1867
I709
tp80
I2
s(I58
I19
tp81
I3
s(I1026
I670
tp82
I2
s(I2507
I342
tp83
I4
s(I1355
I1363
tp84
I3
s(I1519
I2653
tp85
I4
s(I1913
I2497
tp86
I3
s(I3526
I141
tp87
I1
s(I3590
I1371
tp88
I1
s(I1349
I417
tp89
I1
s(I1183
I2655
tp90
I1
s(I3633
I143
tp91
I3
s(I937
I987
tp92
I1
s(I1554
I1593
tp93
I2
s(I1240
I1244
tp94
I4
s(I1306
I2647
tp95
I3
s(I902
I988
tp96
I1
s(I1335
I2493
tp97
I5
s(I10
I19
tp98
I4
s(I2857
I2889
tp99
I3
s(I233
I279
tp100
I2
s(I2669
I2534
tp101
I5
s(I2445
I2332
tp102
I1
s(I932
I988
tp103
I3
s(I1735
I1746
tp104
I1
s(I3597
I1555
tp105
I2
s(I955
I930
tp106
I4
s(I1280
I1237
tp107
I1
s(I90
I148
tp108
I3
s(I290
I338
tp109
I1
s(I678
I395
tp110
I2
s(I457
I21
tp111
I4
s(I1432
I1371
tp112
I3
s(I2684
I278
tp113
I4
s(I1466
I1540
tp114
I5
s(I1853
I1144
tp115
I1
s(I2485
I395
tp116
I1
s(I514
I271
tp117
I6
s(I1023
I1109
tp118
I6
s(I1195
I1107
tp119
I2
s(I3643
I1373
tp120
I1
s(I34
I21
tp121
I1
s(I676
I708
tp122
I4
s(I1877
I2498
tp123
I2
s(I3568
I194
tp124
I1
s(I1288
I393
tp125
I3
s(I1053
I993
tp126
I4
s(I760
I813
tp127
I1
s(I185
I140
tp128
I1
s(I828
I826
tp129
I4
s(I1812
I709
tp130
I3
s(I559
I2035
tp131
I4
s(I659
I395
tp132
I2
s(I948
I987
tp133
I1
s(I3524
I2333
tp134
I1
s(I1818
I1144
tp135
I2
s(I684
I641
tp136
I7
s(I1770
I388
tp137
I1
s(I595
I605
tp138
I1
s(I28
I23
tp139
I3
s(I2942
I823
tp140
I5
s(I3604
I2313
tp141
I2
s(I1234
I2655
tp142
I2
s(I2953
I2765
tp143
I2
s(I1865
I147
tp144
I5
s(I1183
I1247
tp145
I1
s(I1042
I993
tp146
I3
s(I3553
I2313
tp147
I2
s(I1203
I2655
tp148
I1
s(I1498
I2645
tp149
I2
s(I3584
I2037
tp150
I2
s(I1184
I1107
tp151
I2
s(I740
I814
tp152
I1
s(I941
I987
tp153
I2
s(I446
I459
tp154
I4
s(I1853
I2497
tp155
I4
s(I1560
I419
tp156
I3
s(I1481
I1540
tp157
I3
s(I933
I987
tp158
I1
s(I1511
I1540
tp159
I1
s(I2511
I1105
tp160
I2
s(I1350
I1363
tp161
I3
s(I1977
I1104
tp162
I4
s(I1838
I2498
tp163
I4
s(I1677
I146
tp164
I1
s(I1581
I324
tp165
I1
s(I3677
I22
tp166
I1
s(I557
I337
tp167
I3
s(I2266
I2238
tp168
I5
s(I120
I141
tp169
I2
s(I1295
I393
tp170
I7
s(I2345
I2334
tp171
I7
s(I2526
I1095
tp172
I1
s(I1323
I1363
tp173
I4
s(I2826
I2889
tp174
I3
s(I975
I1115
tp175
I2
s(I115
I146
tp176
I6
s(I3630
I1271
tp177
I2
s(I957
I338
tp178
I2
s(I2842
I2868
tp179
I3
s(I65
I23
tp180
I2
s(I3495
I141
tp181
I1
s(I234
I268
tp182
I3
s(I2532
I2522
tp183
I2
s(I2198
I393
tp184
I5
s(I1984
I1104
tp185
I4
s(I1360
I2645
tp186
I3
s(I622
I525
tp187
I5
s(I2401
I2332
tp188
I1
s(I2422
I2332
tp189
I1
s(I2631
I278
tp190
I6
s(I9
I23
tp191
I2
s(I2160
I2765
tp192
I2
s(I1979
I416
tp193
I4
s(I2862
I2890
tp194
I1
s(I2387
I2470
tp195
I3
s(I1977
I2035
tp196
I2
s(I1459
I1540
tp197
I1
s(I1513
I2653
tp198
I3
s(I1873
I419
tp199
I2
s(I2797
I2866
tp200
I2
s(I589
I605
tp201
I1
s(I183
I140
tp202
I3
s(I1988
I2036
tp203
I2
s(I40
I2522
tp204
I3
s(I1203
I1247
tp205
I3
s(I2861
I2866
tp206
I3
s(I1871
I1144
tp207
I2
s(I2893
I525
tp208
I2
s(I841
I852
tp209
I3
s(I515
I525
tp210
I2
s(I1530
I2653
tp211
I1
s(I571
I1177
tp212
I2
s(I741
I824
tp213
I4
s(I613
I526
tp214
I5
s(I2832
I1109
tp215
I4
s(I2258
I2238
tp216
I1
s(I1445
I406
tp217
I2
s(I1523
I2039
tp218
I1
s(I1875
I395
tp219
I1
s(I2810
I1109
tp220
I2
s(I2366
I2334
tp221
I4
s(I210
I268
tp222
I5
s(I800
I815
tp223
I1
s(I231
I268
tp224
I2
s(I1426
I1371
tp225
I3
s(I697
I409
tp226
I5
s(I1836
I1144
tp227
I4
s(I537
I141
tp228
I3
s(I168
I467
tp229
I3
s(I14
I2522
tp230
I3
s(I611
I526
tp231
I5
s(I1611
I814
tp232
I5
s(I1222
I406
tp233
I1
s(I835
I826
tp234
I2
s(I784
I824
tp235
I4
s(I515
I271
tp236
I3
s(I2696
I1144
tp237
I3
s(I1681
I1702
tp238
I5
s(I1419
I1374
tp239
I7
s(I3507
I349
tp240
I3
s(I2237
I2238
tp241
I3
s(I82
I24
tp242
I3
s(I2728
I340
tp243
I2
s(I1761
I1746
tp244
I2
s(I2699
I2522
tp245
I2
s(I642
I707
tp246
I3
s(I2731
I1115
tp247
I2
s(I996
I994
tp248
I3
s(I1808
I408
tp249
I2
s(I1761
I408
tp250
I3
s(I3595
I337
tp251
I1
s(I489
I526
tp252
I1
s(I1946
I2039
tp253
I3
s(I2529
I141
tp254
I4
s(I3502
I2471
tp255
I2
s(I543
I534
tp256
I3
s(I1003
I993
tp257
I7
s(I1769
I1746
tp258
I1
s(I112
I147
tp259
I4
s(I3577
I822
tp260
I1
s(I939
I930
tp261
I4
s(I1290
I393
tp262
I3
s(I2808
I2889
tp263
I1
s(I1697
I418
tp264
I6
s(I2835
I2866
tp265
I2
s(I2759
I21
tp266
I2
s(I1664
I2644
tp267
I2
s(I1301
I417
tp268
I4
s(I660
I641
tp269
I5
s(I790
I816
tp270
I5
s(I128
I1095
tp271
I1
s(I222
I278
tp272
I1
s(I36
I2522
tp273
I3
s(I705
I339
tp274
I3
s(I2828
I2867
tp275
I5
s(I2940
I1115
tp276
I2
s(I1355
I2645
tp277
I3
s(I2930
I2655
tp278
I3
s(I2816
I1109
tp279
I1
s(I488
I411
tp280
I2
s(I362
I342
tp281
I2
s(I555
I2035
tp282
I4
s(I1833
I2497
tp283
I5
s(I1583
I987
tp284
I2
s(I186
I21
tp285
I9
s(I1357
I2647
tp286
I3
s(I3667
I2640
tp287
I1
s(I319
I339
tp288
I3
s(I1755
I1746
tp289
I9
s(I587
I534
tp290
I2
s(I2020
I2039
tp291
I5
s(I1300
I393
tp292
I5
s(I1858
I419
tp293
I1
s(I518
I525
tp294
I6
s(I3580
I330
tp295
I2
s(I1293
I393
tp296
I3
s(I2685
I401
tp297
I3
s(I137
I147
tp298
I5
s(I3628
I201
tp299
I2
s(I2463
I415
tp300
I1
s(I1722
I388
tp301
I4
s(I3634
I855
tp302
I1
s(I1263
I1270
tp303
I4
s(I312
I338
tp304
I1
s(I2397
I2334
tp305
I1
s(I132
I146
tp306
I6
s(I247
I201
tp307
I4
s(I942
I1115
tp308
I2
s(I2424
I2470
tp309
I1
s(I1842
I395
tp310
I1
s(I1212
I414
tp311
I2
s(I3617
I2644
tp312
I1
s(I1667
I418
tp313
I8
s(I3515
I1705
tp314
I2
s(I620
I526
tp315
I1
s(I2700
I2522
tp316
I3
s(I3523
I641
tp317
I1
s(I520
I991
tp318
I1
s(I1762
I2764
tp319
I1
s(I1890
I709
tp320
I2
s(I509
I271
tp321
I3
s(I365
I342
tp322
I5
s(I2290
I2318
tp323
I4
s(I3651
I460
tp324
I1
s(I1828
I147
tp325
I3
s(I835
I333
tp326
I2
s(I2410
I2470
tp327
I3
s(I604
I534
tp328
I2
s(I1196
I1107
tp329
I1
s(I767
I815
tp330
I2
s(I2349
I2470
tp331
I1
s(I1340
I2767
tp332
I2
s(I3622
I2039
tp333
I1
s(I1671
I146
tp334
I1
s(I2260
I2322
tp335
I4
s(I2285
I2238
tp336
I4
s(I1230
I2655
tp337
I4
s(I2013
I1104
tp338
I5
s(I623
I411
tp339
I3
s(I570
I533
tp340
I3
s(I2382
I415
tp341
I1
s(I596
I533
tp342
I1
s(I3646
I1705
tp343
I1
s(I1359
I2493
tp344
I4
s(I3646
I337
tp345
I1
s(I2178
I2209
tp346
I4
s(I765
I331
tp347
I3
s(I1462
I1540
tp348
I9
s(I1461
I1540
tp349
I1
s(I1341
I1367
tp350
I4
s(I509
I525
tp351
I2
s(I327
I1105
tp352
I2
s(I918
I988
tp353
I5
s(I26
I19
tp354
I2
s(I1366
I533
tp355
I3
s(I3586
I1555
tp356
I1
s(I304
I337
tp357
I1
s(I1637
I2769
tp358
I5
s(I2428
I2334
tp359
I5
s(I73
I20
tp360
I6
s(I2186
I2765
tp361
I4
s(I313
I339
tp362
I3
s(I893
I338
tp363
I4
s(I1314
I1367
tp364
I1
s(I2430
I2332
tp365
I1
s(I2444
I415
tp366
I2
s(I2790
I1109
tp367
I3
s(I3616
I708
tp368
I2
s(I1473
I2653
tp369
I3
s(I753
I816
tp370
I4
s(I2278
I2319
tp371
I4
s(I204
I278
tp372
I5
s(I684
I707
tp373
I2
s(I1093
I1155
tp374
I1
s(I2384
I2470
tp375
I2
s(I926
I338
tp376
I2
s(I763
I814
tp377
I1
s(I787
I815
tp378
I4
s(I1945
I2038
tp379
I6
s(I2347
I2332
tp380
I1
s(I1343
I2767
tp381
I3
s(I1505
I1540
tp382
I7
s(I661
I707
tp383
I6
s(I1417
I1374
tp384
I1
s(I2248
I2322
tp385
I4
s(I1438
I1374
tp386
I3
s(I174
I468
tp387
I2
s(I1611
I2770
tp388
I6
s(I2299
I2313
tp389
I3
s(I199
I418
tp390
I5
s(I1530
I1540
tp391
I5
s(I256
I278
tp392
I3
s(I591
I141
tp393
I3
s(I2007
I1104
tp394
I3
s(I1013
I992
tp395
I8
s(I1036
I992
tp396
I5
s(I3588
I261
tp397
I2
s(I484
I271
tp398
I1
s(I913
I407
tp399
I1
s(I289
I338
tp400
I2
s(I1358
I417
tp401
I1
s(I1411
I1372
tp402
I5
s(I1691
I2661
tp403
I2
s(I1240
I406
tp404
I2
s(I820
I2767
tp405
I3
s(I15
I2522
tp406
I3
s(I1512
I2498
tp407
I3
s(I2249
I2323
tp408
I2
s(I2934
I525
tp409
I3
s(I2670
I2764
tp410
I1
s(I2369
I2334
tp411
I4
s(I1399
I406
tp412
I4
s(I564
I605
tp413
I3
s(I2461
I1409
tp414
I2
s(I2279
I2238
tp415
I5
s(I86
I1096
tp416
I1
s(I1728
I388
tp417
I2
s(I2363
I415
tp418
I5
s(I1044
I992
tp419
I5
s(I1517
I1540
tp420
I1
s(I740
I331
tp421
I3
s(I691
I707
tp422
I8
s(I675
I707
tp423
I3
s(I847
I854
tp424
I6
s(I849
I852
tp425
I7
s(I153
I1095
tp426
I1
s(I2734
I1115
tp427
I2
s(I1258
I410
tp428
I1
s(I1792
I2764
tp429
I4
s(I1707
I399
tp430
I1
s(I1712
I1746
tp431
I5
s(I3496
I3401
tp432
I1
s(I2840
I2867
tp433
I3
s(I1386
I406
tp434
I2
s(I842
I854
tp435
I5
s(I2310
I2238
tp436
I1
s(I556
I141
tp437
I3
s(I1787
I388
tp438
I1
s(I704
I708
tp439
I3
s(I3530
I823
tp440
I4
s(I1405
I399
tp441
I1
s(I3566
I823
tp442
I2
s(I548
I605
tp443
I1
s(I236
I271
tp444
I2
s(I2163
I393
tp445
I5
s(I936
I930
tp446
I4
s(I2785
I1109
tp447
I4
s(I646
I395
tp448
I2
s(I247
I279
tp449
I2
s(I1192
I2655
tp450
I3
s(I3552
I337
tp451
I3
s(I452
I140
tp452
I3
s(I1322
I417
tp453
I6
s(I153
I1096
tp454
I1
s(I2241
I2319
tp455
I2
s(I727
I339
tp456
I2
s(I2350
I2470
tp457
I2
s(I912
I407
tp458
I4
s(I2949
I1159
tp459
I1
s(I1639
I2770
tp460
I3
s(I788
I814
tp461
I3
s(I1863
I147
tp462
I3
s(I1501
I1112
tp463
I1
s(I1653
I331
tp464
I1
s(I452
I418
tp465
I5
s(I660
I708
tp466
I5
s(I1225
I2545
tp467
I4
s(I2531
I24
tp468
I3
s(I2784
I2867
tp469
I5
s(I286
I340
tp470
I2
s(I2747
I402
tp471
I1
s(I698
I707
tp472
I3
s(I91
I147
tp473
I3
s(I1982
I2038
tp474
I2
s(I2847
I2868
tp475
I4
s(I880
I407
tp476
I2
s(I167
I459
tp477
I3
s(I1653
I2534
tp478
I4
s(I1663
I418
tp479
I3
s(I2773
I2867
tp480
I3
s(I2306
I2318
tp481
I5
s(I2417
I2470
tp482
I1
s(I595
I2035
tp483
I2
s(I443
I21
tp484
I6
s(I227
I279
tp485
I2
s(I2704
I1096
tp486
I1
s(I232
I277
tp487
I1
s(I1832
I147
tp488
I4
s(I1026
I993
tp489
I2
s(I2885
I2867
tp490
I5
s(I1449
I1540
tp491
I2
s(I703
I707
tp492
I8
s(I797
I815
tp493
I4
s(I997
I994
tp494
I2
s(I173
I21
tp495
I6
s(I894
I1115
tp496
I2
s(I2958
I2332
tp497
I1
s(I3546
I337
tp498
I1
s(I1881
I1144
tp499
I4
s(I1619
I2769
tp500
I3
s(I2295
I2238
tp501
I1
s(I2853
I2867
tp502
I2
s(I1807
I388
tp503
I4
s(I1646
I1610
tp504
I2
s(I287
I343
tp505
I2
s(I3512
I22
tp506
I4
s(I770
I815
tp507
I2
s(I1860
I2498
tp508
I4
s(I628
I527
tp509
I2
s(I3639
I338
tp510
I1
s(I544
I534
tp511
I2
s(I2269
I2322
tp512
I1
s(I1297
I393
tp513
I6
s(I2296
I2318
tp514
I3
s(I3516
I349
tp515
I1
s(I189
I467
tp516
I2
s(I202
I268
tp517
I3
s(I2681
I268
tp518
I2
s(I497
I991
tp519
I1
s(I223
I268
tp520
I3
s(I2179
I416
tp521
I3
s(I2353
I2471
tp522
I3
s(I906
I987
tp523
I2
s(I60
I19
tp524
I2
s(I1292
I2209
tp525
I6
s(I2828
I1109
tp526
I5
s(I142
I994
tp527
I2
s(I217
I278
tp528
I4
s(I2567
I418
tp529
I8
s(I771
I824
tp530
I4
s(I2970
I408
tp531
I2
s(I1898
I709
tp532
I3
s(I353
I342
tp533
I5
s(I832
I826
tp534
I6
s(I959
I338
tp535
I5
s(I2304
I2318
tp536
I2
s(I2912
I388
tp537
I3
s(I214
I271
tp538
I4
s(I2695
I2763
tp539
I2
s(I513
I527
tp540
I5
s(I610
I525
tp541
I3
s(I2422
I1159
tp542
I1
s(I1700
I418
tp543
I5
s(I964
I2655
tp544
I3
s(I3569
I337
tp545
I2
s(I603
I534
tp546
I1
s(I88
I148
tp547
I3
s(I1499
I2039
tp548
I1
s(I2379
I401
tp549
I2
s(I1472
I2645
tp550
I1
s(I719
I1118
tp551
I1
s(I280
I336
tp552
I1
s(I1774
I408
tp553
I2
s(I2809
I2866
tp554
I2
s(I2745
I992
tp555
I3
s(I1040
I992
tp556
I3
s(I2026
I2038
tp557
I1
s(I1013
I402
tp558
I5
s(I903
I407
tp559
I4
s(I1509
I2645
tp560
I2
s(I2705
I1096
tp561
I1
s(I2171
I2209
tp562
I4
s(I2050
I2035
tp563
I2
s(I680
I641
tp564
I5
s(I1723
I2764
tp565
I2
s(I772
I815
tp566
I2
s(I2383
I1409
tp567
I6
s(I354
I343
tp568
I2
s(I483
I991
tp569
I1
s(I2447
I2470
tp570
I2
s(I1759
I337
tp571
I3
s(I1882
I1144
tp572
I6
s(I3588
I201
tp573
I1
s(I2019
I2038
tp574
I6
s(I1318
I2493
tp575
I3
s(I2369
I401
tp576
I2
s(I2811
I1109
tp577
I9
s(I767
I816
tp578
I2
s(I3597
I336
tp579
I2
s(I2204
I2208
tp580
I1
s(I627
I527
tp581
I5
s(I296
I339
tp582
I1
s(I2955
I148
tp583
I3
s(I2966
I2764
tp584
I4
s(I46
I20
tp585
I2
s(I672
I707
tp586
I5
s(I838
I826
tp587
I1
s(I1312
I2493
tp588
I4
s(I490
I525
tp589
I6
s(I2717
I2765
tp590
I4
s(I2438
I2332
tp591
I1
s(I3638
I2644
tp592
I1
s(I237
I268
tp593
I1
s(I2274
I2238
tp594
I3
s(I3586
I336
tp595
I1
s(I1732
I1746
tp596
I5
s(I1442
I1374
tp597
I1
s(I1629
I1706
tp598
I4
s(I106
I146
tp599
I5
s(I2801
I1109
tp600
I3
s(I2260
I2323
tp601
I1
s(I1899
I1144
tp602
I2
s(I2256
I2323
tp603
I2
s(I2188
I393
tp604
I4
s(I3565
I2644
tp605
I2
s(I1743
I2764
tp606
I1
s(I2713
I388
tp607
I3
s(I2297
I2322
tp608
I6
s(I676
I641
tp609
I4
s(I1436
I1372
tp610
I5
s(I1657
I2534
tp611
I2
s(I1419
I406
tp612
I3
s(I1670
I2644
tp613
I4
s(I2268
I2319
tp614
I2
s(I673
I339
tp615
I1
s(I2281
I2238
tp616
I1
s(I1688
I418
tp617
I2
s(I1464
I2039
tp618
I3
s(I2717
I393
tp619
I4
s(I2196
I393
tp620
I3
s(I1768
I388
tp621
I1
s(I2235
I2322
tp622
I5
s(I1886
I2497
tp623
I8
s(I2801
I2867
tp624
I3
s(I1572
I419
tp625
I4
s(I1297
I2208
tp626
I3
s(I2386
I2491
tp627
I1
s(I611
I991
tp628
I1
s(I75
I2522
tp629
I3
s(I580
I534
tp630
I3
s(I1775
I1746
tp631
I3
s(I2575
I2035
tp632
I3
s(I447
I468
tp633
I2
s(I3662
I2644
tp634
I1
s(I1043
I993
tp635
I4
s(I1682
I2485
tp636
I2
s(I2457
I2332
tp637
I1
s(I566
I536
tp638
I6
s(I662
I409
tp639
I2
s(I1218
I403
tp640
I1
s(I1586
I336
tp641
I5
s(I890
I407
tp642
I4
s(I2707
I1095
tp643
I1
s(I2638
I2322
tp644
I1
s(I2015
I1104
tp645
I4
s(I2165
I2765
tp646
I3
s(I38
I23
tp647
I2
s(I2716
I2765
tp648
I4
s(I3623
I459
tp649
I3
s(I528
I2035
tp650
I5
s(I2180
I393
tp651
I5
s(I1776
I2764
tp652
I4
s(I2189
I2209
tp653
I3
s(I2793
I1109
tp654
I7
s(I1643
I2769
tp655
I5
s(I2181
I2208
tp656
I4
s(I2694
I2763
tp657
I3
s(I99
I148
tp658
I1
s(I1590
I336
tp659
I3
s(I79
I19
tp660
I2
s(I1834
I1144
tp661
I3
s(I1563
I1593
tp662
I3
s(I16
I21
tp663
I1
s(I3518
I670
tp664
I1
s(I1033
I402
tp665
I5
s(I3640
I349
tp666
I2
s(I6
I2522
tp667
I3
s(I225
I268
tp668
I4
s(I548
I2035
tp669
I2
s(I2312
I2238
tp670
I2
s(I1877
I2497
tp671
I2
s(I590
I1177
tp672
I2
s(I2858
I2866
tp673
I5
s(I81
I21
tp674
I1
s(I2800
I1109
tp675
I10
s(I253
I271
tp676
I2
s(I1981
I1104
tp677
I2
s(I668
I708
tp678
I6
s(I1575
I1551
tp679
I3
s(I2883
I2868
tp680
I4
s(I2017
I1104
tp681
I1
s(I158
I1096
tp682
I1
s(I2968
I399
tp683
I5
s(I2733
I1115
tp684
I2
s(I1640
I2769
tp685
I3
s(I1713
I408
tp686
I4
s(I2439
I415
tp687
I2
s(I703
I409
tp688
I5
s(I905
I338
tp689
I3
s(I1757
I388
tp690
I3
s(I2766
I2498
tp691
I2
s(I1906
I395
tp692
I1
s(I285
I349
tp693
I4
s(I2747
I992
tp694
I4
s(I1524
I2039
tp695
I3
s(I1559
I1551
tp696
I2
s(I2968
I1746
tp697
I8
s(I41
I20
tp698
I4
s(I76
I2522
tp699
I2
s(I1198
I414
tp700
I3
s(I3493
I536
tp701
I1
s(I1313
I2767
tp702
I2
s(I3551
I140
tp703
I1
s(I1779
I399
tp704
I3
s(I1046
I402
tp705
I2
s(I1086
I1375
tp706
I1
s(I1032
I402
tp707
I2
s(I682
I641
tp708
I5
s(I1522
I2645
tp709
I2
s(I1846
I2498
tp710
I4
s(I35
I22
tp711
I5
s(I2306
I2238
tp712
I6
s(I1473
I1540
tp713
I6
s(I3671
I3433
tp714
I1
s(I1777
I408
tp715
I5
s(I18
I22
tp716
I5
s(I503
I271
tp717
I3
s(I2930
I338
tp718
I5
s(I3
I2522
tp719
I3
s(I1524
I1540
tp720
I4
s(I320
I341
tp721
I3
s(I1313
I2647
tp722
I2
s(I1532
I2653
tp723
I4
s(I566
I337
tp724
I3
s(I2385
I2334
tp725
I3
s(I1790
I1746
tp726
I5
s(I3574
I1363
tp727
I1
s(I1674
I2485
tp728
I3
s(I1900
I395
tp729
I1
s(I302
I340
tp730
I1
s(I103
I150
tp731
I1
s(I2372
I2334
tp732
I5
s(I2419
I415
tp733
I2
s(I2195
I393
tp734
I7
s(I521
I526
tp735
I6
s(I3621
I261
tp736
I1
s(I2736
I1375
tp737
I4
s(I1774
I1746
tp738
I1
s(I907
I988
tp739
I3
s(I2281
I2313
tp740
I3
s(I1502
I1540
tp741
I8
s(I1574
I1568
tp742
I1
s(I2275
I2322
tp743
I1
s(I367
I338
tp744
I2
s(I2253
I2313
tp745
I3
s(I937
I407
tp746
I3
s(I1025
I993
tp747
I3
s(I2018
I1104
tp748
I6
s(I1451
I1540
tp749
I7
s(I2792
I1109
tp750
I7
s(I189
I21
tp751
I4
s(I101
I147
tp752
I2
s(I1872
I2497
tp753
I3
s(I954
I338
tp754
I5
s(I2433
I2334
tp755
I2
s(I926
I3401
tp756
I2
s(I188
I467
tp757
I3
s(I2803
I2889
tp758
I1
s(I47
I24
tp759
I3
s(I1446
I1373
tp760
I3
s(I2813
I2867
tp761
I2
s(I966
I988
tp762
I1
s(I1661
I2644
tp763
I2
s(I630
I526
tp764
I2
s(I2823
I2867
tp765
I1
s(I3568
I271
tp766
I2
s(I1990
I2038
tp767
I1
s(I2937
I1118
tp768
I1
s(I107
I146
tp769
I3
s(I55
I20
tp770
I6
s(I1509
I1540
tp771
I7
s(I1435
I1371
tp772
I3
s(I1424
I1375
tp773
I4
s(I2170
I2208
tp774
I3
s(I1204
I1247
tp775
I3
s(I965
I338
tp776
I5
s(I1904
I2498
tp777
I1
s(I1703
I1746
tp778
I7
s(I3609
I3433
tp779
I1
s(I271
I395
tp780
I1
s(I2787
I2889
tp781
I1
s(I2355
I2334
tp782
I4
s(I1182
I403
tp783
I1
s(I3589
I993
tp784
I1
s(I600
I533
tp785
I2
s(I1427
I1374
tp786
I3
s(I2790
I2866
tp787
I6
s(I2259
I2323
tp788
I4
s(I2916
I467
tp789
I3
s(I131
I141
tp790
I4
s(I3653
I2866
tp791
I1
s(I893
I2655
tp792
I2
s(I1740
I399
tp793
I5
s(I1314
I417
tp794
I1
s(I1992
I2036
tp795
I1
s(I1003
I992
tp796
I3
s(I2395
I401
tp797
I2
s(I1454
I1112
tp798
I2
s(I1469
I1112
tp799
I2
s(I1879
I2497
tp800
I3
s(I449
I418
tp801
I2
s(I1566
I324
tp802
I4
s(I1450
I2653
tp803
I5
s(I132
I148
tp804
I4
s(I3500
I3433
tp805
I1
s(I2808
I2890
tp806
I1
s(I2669
I331
tp807
I2
s(I463
I268
tp808
I3
s(I1905
I709
tp809
I2
s(I545
I536
tp810
I5
s(I2298
I2318
tp811
I5
s(I913
I988
tp812
I5
s(I2013
I2035
tp813
I2
s(I3658
I2640
tp814
I2
s(I1759
I1705
tp815
I3
s(I168
I21
tp816
I5
s(I2235
I2323
tp817
I2
s(I2700
I19
tp818
I3
s(I461
I987
tp819
I2
s(I1431
I1372
tp820
I1
s(I2536
I19
tp821
I2
s(I691
I409
tp822
I5
s(I3494
I536
tp823
I2
s(I821
I1104
tp824
I6
s(I507
I991
tp825
I1
s(I169
I21
tp826
I3
s(I733
I815
tp827
I2
s(I2009
I2039
tp828
I3
s(I958
I1115
tp829
I2
s(I2347
I1159
tp830
I1
s(I2444
I1409
tp831
I2
s(I2466
I2332
tp832
I1
s(I1714
I388
tp833
I4
s(I1733
I399
tp834
I2
s(I564
I2035
tp835
I4
s(I281
I340
tp836
I4
s(I66
I24
tp837
I3
s(I549
I605
tp838
I4
s(I2258
I2313
tp839
I3
s(I2278
I2322
tp840
I4
s(I1626
I1706
tp841
I3
s(I1023
I2866
tp842
I6
s(I2493
I1118
tp843
I1
s(I784
I823
tp844
I6
s(I3613
I22
tp845
I3
s(I1757
I2764
tp846
I3
s(I2817
I2867
tp847
I3
s(I2364
I1409
tp848
I5
s(I1045
I993
tp849
I7
s(I2274
I2318
tp850
I3
s(I1688
I2645
tp851
I1
s(I2011
I2038
tp852
I5
s(I122
I146
tp853
I6
s(I1629
I2769
tp854
I4
s(I620
I527
tp855
I5
s(I36
I19
tp856
I4
s(I897
I407
tp857
I4
s(I96
I147
tp858
I4
s(I1569
I987
tp859
I1
s(I1974
I2035
tp860
I2
s(I2058
I2039
tp861
I5
s(I1763
I1705
tp862
I4
s(I2297
I2323
tp863
I3
s(I1735
I408
tp864
I2
s(I2440
I2470
tp865
I1
s(I3598
I2240
tp866
I2
s(I220
I268
tp867
I1
s(I2448
I2470
tp868
I4
s(I1471
I2645
tp869
I1
s(I448
I21
tp870
I4
s(I2409
I1409
tp871
I6
s(I718
I1367
tp872
I2
s(I836
I852
tp873
I4
s(I2041
I2035
tp874
I2
s(I1410
I1372
tp875
I2
s(I902
I930
tp876
I2
s(I1534
I2640
tp877
I3
s(I2687
I2334
tp878
I3
s(I648
I708
tp879
I5
s(I2689
I2334
tp880
I2
s(I2964
I814
tp881
I1
s(I571
I534
tp882
I3
s(I2876
I814
tp883
I3
s(I2280
I2318
tp884
I3
s(I2954
I395
tp885
I1
s(I961
I407
tp886
I3
s(I963
I407
tp887
I7
s(I2195
I2765
tp888
I3
s(I363
I349
tp889
I4
s(I2509
I1105
tp890
I2
s(I1403
I1374
tp891
I4
s(I633
I527
tp892
I5
s(I2860
I2890
tp893
I1
s(I2412
I2332
tp894
I1
s(I249
I278
tp895
I2
s(I766
I813
tp896
I1
s(I569
I605
tp897
I3
s(I1984
I341
tp898
I2
s(I682
I708
tp899
I5
s(I479
I526
tp900
I6
s(I2931
I2653
tp901
I3
s(I1366
I2035
tp902
I7
s(I2943
I2765
tp903
I2
s(I2895
I393
tp904
I8
s(I619
I525
tp905
I1
s(I1843
I395
tp906
I1
s(I2373
I415
tp907
I5
s(I565
I536
tp908
I5
s(I1510
I1540
tp909
I3
s(I307
I336
tp910
I1
s(I18
I24
tp911
I3
s(I2452
I415
tp912
I1
s(I1220
I2545
tp913
I1
s(I2713
I2764
tp914
I3
s(I556
I536
tp915
I3
s(I2248
I2323
tp916
I4
s(I3496
I338
tp917
I1
s(I2419
I1409
tp918
I2
s(I1891
I2497
tp919
I6
s(I2845
I2866
tp920
I1
s(I2794
I2889
tp921
I3
s(I2932
I2765
tp922
I4
s(I1643
I1706
tp923
I4
s(I2945
I2764
tp924
I2
s(I1497
I1540
tp925
I6
s(I653
I707
tp926
I2
s(I525
I526
tp927
I5
s(I681
I339
tp928
I2
s(I2356
I1409
tp929
I7
s(I1855
I273
tp930
I1
s(I2933
I393
tp931
I4
s(I2737
I406
tp932
I4
s(I1844
I147
tp933
I3
s(I195
I467
tp934
I2
s(I447
I21
tp935
I6
s(I1316
I417
tp936
I7
s(I1907
I395
tp937
I1
s(I1005
I992
tp938
I5
s(I2840
I1109
tp939
I8
s(I1694
I2644
tp940
I1
s(I1995
I1104
tp941
I5
s(I2425
I2334
tp942
I3
s(I2252
I2318
tp943
I5
s(I3672
I2471
tp944
I1
s(I1041
I992
tp945
I3
s(I2401
I1159
tp946
I1
s(I283
I339
tp947
I2
s(I1945
I416
tp948
I3
s(I1007
I402
tp949
I6
s(I1678
I2485
tp950
I3
s(I1012
I402
tp951
I5
s(I3598
I2313
tp952
I2
s(I2825
I2867
tp953
I2
s(I1577
I1593
tp954
I4
s(I2358
I2334
tp955
I5
s(I1439
I1372
tp956
I5
s(I3644
I459
tp957
I3
s(I3560
I822
tp958
I2
s(I1009
I992
tp959
I2
s(I1768
I2764
tp960
I1
s(I1715
I388
tp961
I3
s(I2795
I2867
tp962
I3
s(I2706
I1095
tp963
I1
s(I1870
I2497
tp964
I3
s(I909
I338
tp965
I1
s(I1354
I417
tp966
I2
s(I1632
I814
tp967
I3
s(I1431
I1371
tp968
I2
s(I37
I23
tp969
I2
s(I1896
I709
tp970
I2
s(I1235
I414
tp971
I3
s(I2429
I2471
tp972
I3
s(I1554
I419
tp973
I3
s(I2852
I2866
tp974
I3
s(I1983
I1104
tp975
I2
s(I1661
I2485
tp976
I3
s(I973
I988
tp977
I3
s(I578
I534
tp978
I2
s(I1704
I1746
tp979
I1
s(I2029
I2035
tp980
I2
s(I2354
I415
tp981
I2
s(I1794
I408
tp982
I1
s(I305
I1105
tp983
I2
s(I695
I409
tp984
I2
s(I495
I525
tp985
I3
s(I259
I268
tp986
I3
s(I2436
I2470
tp987
I1
s(I940
I987
tp988
I2
s(I634
I407
tp989
I3
s(I357
I1105
tp990
I2
s(I2958
I1159
tp991
I1
s(I2388
I2334
tp992
I2
s(I305
I340
tp993
I4
s(I778
I814
tp994
I1
s(I2774
I1109
tp995
I7
s(I538
I337
tp996
I1
s(I351
I340
tp997
I1
s(I1206
I1247
tp998
I4
s(I798
I813
tp999
I1
s(I486
I526
tp1000
I1
s(I1207
I403
tp1001
I1
s(I2902
I399
tp1002
I1
s(I1706
I2764
tp1003
I1
s(I299
I342
tp1004
I3
s(I1888
I395
tp1005
I2
s(I2823
I1109
tp1006
I1
s(I3534
I143
tp1007
I2
s(I3570
I337
tp1008
I2
s(I162
I21
tp1009
I2
s(I74
I23
tp1010
I1
s(I3655
I22
tp1011
I2
s(I2805
I2866
tp1012
I5
s(I495
I271
tp1013
I3
s(I2931
I1112
tp1014
I2
s(I1006
I994
tp1015
I1
s(I746
I331
tp1016
I2
s(I499
I527
tp1017
I3
s(I2939
I1269
tp1018
I4
s(I1982
I2039
tp1019
I4
s(I1489
I2640
tp1020
I4
s(I3561
I1373
tp1021
I1
s(I3612
I2868
tp1022
I2
s(I2377
I2334
tp1023
I2
s(I3510
I1245
tp1024
I3
s(I671
I409
tp1025
I3
s(I747
I815
tp1026
I2
s(I306
I341
tp1027
I3
s(I2402
I415
tp1028
I1
s(I3680
I1245
tp1029
I1
s(I1325
I1367
tp1030
I4
s(I1826
I147
tp1031
I5
s(I850
I852
tp1032
I4
s(I9
I20
tp1033
I2
s(I1812
I1144
tp1034
I3
s(I123
I146
tp1035
I4
s(I802
I331
tp1036
I2
s(I2781
I1109
tp1037
I5
s(I217
I268
tp1038
I4
s(I718
I417
tp1039
I2
s(I482
I271
tp1040
I3
s(I1652
I2770
tp1041
I2
s(I1354
I2493
tp1042
I4
s(I3663
I261
tp1043
I1
s(I139
I140
tp1044
I2
s(I896
I988
tp1045
I1
s(I1805
I2764
tp1046
I3
s(I1508
I2653
tp1047
I3
s(I2044
I1104
tp1048
I1
s(I1992
I416
tp1049
I4
s(I545
I337
tp1050
I2
s(I3679
I347
tp1051
I1
s(I2919
I2764
tp1052
I4
s(I197
I468
tp1053
I2
s(I1830
I2498
tp1054
I1
s(I491
I526
tp1055
I1
s(I1895
I395
tp1056
I1
s(I2684
I268
tp1057
I4
s(I2346
I2332
tp1058
I1
s(I652
I707
tp1059
I5
s(I2917
I2485
tp1060
I5
s(I2423
I415
tp1061
I2
s(I1941
I2039
tp1062
I2
s(I1725
I1746
tp1063
I5
s(I1038
I402
tp1064
I2
s(I1795
I399
tp1065
I2
s(I787
I816
tp1066
I2
s(I1621
I331
tp1067
I2
s(I80
I23
tp1068
I2
s(I522
I527
tp1069
I1
s(I482
I525
tp1070
I3
s(I946
I2655
tp1071
I2
s(I15
I19
tp1072
I4
s(I2168
I2208
tp1073
I2
s(I238
I279
tp1074
I3
s(I79
I2522
tp1075
I1
s(I646
I339
tp1076
I2
s(I2241
I2322
tp1077
I1
s(I42
I22
tp1078
I2
s(I3629
I2498
tp1079
I3
s(I599
I337
tp1080
I2
s(I214
I268
tp1081
I1
s(I1318
I417
tp1082
I2
s(I52
I20
tp1083
I4
s(I513
I526
tp1084
I1
s(I2403
I2334
tp1085
I2
s(I1359
I417
tp1086
I2
s(I516
I525
tp1087
I5
s(I1219
I1247
tp1088
I4
s(I1642
I814
tp1089
I7
s(I2411
I401
tp1090
I2
s(I173
I467
tp1091
I1
s(I1294
I2765
tp1092
I4
s(I1209
I1244
tp1093
I4
s(I1591
I324
tp1094
I4
s(I1639
I814
tp1095
I3
s(I675
I641
tp1096
I4
s(I2055
I416
tp1097
I3
s(I3570
I1705
tp1098
I2
s(I777
I815
tp1099
I2
s(I1755
I399
tp1100
I5
s(I637
I991
tp1101
I1
s(I1190
I2655
tp1102
I2
s(I801
I815
tp1103
I1
s(I1638
I2770
tp1104
I2
s(I2345
I401
tp1105
I3
s(I2026
I2039
tp1106
I3
s(I705
I395
tp1107
I3
s(I2704
I1095
tp1108
I1
s(I1615
I2769
tp1109
I3
s(I2432
I1409
tp1110
I5
s(I1296
I2208
tp1111
I2
s(I1477
I2640
tp1112
I3
s(I1502
I2653
tp1113
I3
s(I2051
I2039
tp1114
I5
s(I1806
I1746
tp1115
I4
s(I354
I340
tp1116
I2
s(I2677
I2765
tp1117
I3
s(I154
I1096
tp1118
I1
s(I1463
I2645
tp1119
I2
s(I967
I930
tp1120
I5
s(I848
I333
tp1121
I3
s(I2714
I2764
tp1122
I4
s(I170
I418
tp1123
I5
s(I2309
I2238
tp1124
I6
s(I1557
I1593
tp1125
I3
s(I2978
I467
tp1126
I2
s(I2929
I1109
tp1127
I2
s(I627
I526
tp1128
I1
s(I938
I338
tp1129
I3
s(I2381
I2332
tp1130
I1
s(I2743
I994
tp1131
I3
s(I136
I1095
tp1132
I1
s(I1890
I1144
tp1133
I4
s(I1373
I399
tp1134
I1
s(I2465
I2334
tp1135
I2
s(I2507
I339
tp1136
I3
s(I1326
I2493
tp1137
I4
s(I879
I1115
tp1138
I2
s(I2788
I2867
tp1139
I3
s(I2886
I2890
tp1140
I1
s(I361
I342
tp1141
I5
s(I2964
I331
tp1142
I3
s(I881
I930
tp1143
I4
s(I43
I2522
tp1144
I3
s(I1484
I1540
tp1145
I7
s(I2738
I1372
tp1146
I4
s(I761
I815
tp1147
I2
s(I133
I150
tp1148
I1
s(I979
I407
tp1149
I1
s(I1814
I2497
tp1150
I3
s(I831
I333
tp1151
I3
s(I2575
I1104
tp1152
I7
s(I1185
I2655
tp1153
I8
s(I1309
I2493
tp1154
I5
s(I2439
I1409
tp1155
I2
s(I576
I2035
tp1156
I4
s(I498
I526
tp1157
I1
s(I541
I533
tp1158
I1
s(I1300
I2208
tp1159
I3
s(I1575
I324
tp1160
I5
s(I3573
I1705
tp1161
I1
s(I1787
I2764
tp1162
I1
s(I1005
I402
tp1163
I6
s(I1326
I2645
tp1164
I6
s(I4
I20
tp1165
I2
s(I1093
I994
tp1166
I2
s(I776
I815
tp1167
I4
s(I1041
I402
tp1168
I4
s(I653
I641
tp1169
I4
s(I626
I527
tp1170
I4
s(I2753
I987
tp1171
I2
s(I1007
I992
tp1172
I8
s(I1289
I393
tp1173
I3
s(I1528
I1540
tp1174
I3
s(I1361
I2645
tp1175
I3
s(I3512
I24
tp1176
I2
s(I1852
I2497
tp1177
I4
s(I2393
I415
tp1178
I1
s(I765
I814
tp1179
I1
s(I34
I24
tp1180
I6
s(I29
I21
tp1181
I1
s(I474
I467
tp1182
I2
s(I2915
I526
tp1183
I3
s(I572
I536
tp1184
I5
s(I846
I826
tp1185
I2
s(I2510
I1105
tp1186
I2
s(I1880
I2497
tp1187
I6
s(I890
I987
tp1188
I2
s(I2030
I1104
tp1189
I5
s(I2638
I2323
tp1190
I1
s(I3599
I3501
tp1191
I1
s(I114
I146
tp1192
I7
s(I38
I20
tp1193
I2
s(I1217
I403
tp1194
I1
s(I480
I991
tp1195
I2
s(I2362
I2491
tp1196
I1
s(I2357
I2470
tp1197
I3
s(I1349
I1367
tp1198
I1
s(I90
I146
tp1199
I3
s(I2437
I2334
tp1200
I3
s(I770
I816
tp1201
I2
s(I769
I824
tp1202
I3
s(I1034
I670
tp1203
I3
s(I1432
I1373
tp1204
I3
s(I2847
I2866
tp1205
I3
s(I1666
I1109
tp1206
I2
s(I1563
I419
tp1207
I4
s(I927
I1115
tp1208
I2
s(I2192
I2208
tp1209
I1
s(I2772
I2889
tp1210
I2
s(I1447
I1375
tp1211
I3
s(I2743
I1155
tp1212
I2
s(I1844
I273
tp1213
I1
s(I963
I1115
tp1214
I3
s(I2923
I1159
tp1215
I1
s(I2420
I2470
tp1216
I1
s(I3514
I271
tp1217
I1
s(I1731
I408
tp1218
I3
s(I1773
I2764
tp1219
I4
s(I1668
I1702
tp1220
I5
s(I2843
I1109
tp1221
I5
s(I2527
I147
tp1222
I5
s(I2682
I278
tp1223
I2
s(I3608
I324
tp1224
I1
s(I2927
I2332
tp1225
I1
s(I687
I395
tp1226
I2
s(I1420
I1375
tp1227
I2
s(I3629
I2640
tp1228
I3
s(I1512
I2640
tp1229
I3
s(I3661
I3645
tp1230
I1
s(I2854
I2889
tp1231
I3
s(I2892
I2209
tp1232
I3
s(I2960
I1610
tp1233
I2
s(I2860
I2889
tp1234
I1
s(I1727
I399
tp1235
I2
s(I2199
I393
tp1236
I8
s(I1001
I994
tp1237
I1
s(I1823
I1144
tp1238
I3
s(I3565
I1363
tp1239
I2
s(I2534
I2522
tp1240
I2
s(I1558
I1568
tp1241
I1
s(I916
I1115
tp1242
I2
s(I2812
I2866
tp1243
I2
s(I1304
I1363
tp1244
I3
s(I1339
I2644
tp1245
I2
s(I573
I2035
tp1246
I2
s(I2030
I2035
tp1247
I1
s(I2302
I2318
tp1248
I3
s(I1299
I2765
tp1249
I2
s(I3551
I143
tp1250
I2
s(I1214
I1244
tp1251
I2
s(I456
I467
tp1252
I2
s(I701
I707
tp1253
I5
s(I577
I605
tp1254
I1
s(I2177
I2209
tp1255
I3
s(I1469
I2653
tp1256
I5
s(I790
I813
tp1257
I1
s(I2350
I2334
tp1258
I2
s(I648
I641
tp1259
I5
s(I97
I141
tp1260
I2
s(I1975
I2039
tp1261
I6
s(I248
I271
tp1262
I4
s(I1722
I2764
tp1263
I4
s(I693
I708
tp1264
I4
s(I1831
I709
tp1265
I2
s(I1393
I406
tp1266
I3
s(I109
I147
tp1267
I3
s(I666
I339
tp1268
I2
s(I1680
I146
tp1269
I1
s(I2842
I2866
tp1270
I3
s(I1780
I2764
tp1271
I3
s(I1703
I399
tp1272
I5
s(I1465
I1540
tp1273
I1
s(I2016
I2036
tp1274
I2
s(I3671
I22
tp1275
I1
s(I1263
I1271
tp1276
I4
s(I2811
I2867
tp1277
I3
s(I3678
I1245
tp1278
I2
s(I1728
I2764
tp1279
I2
s(I2686
I401
tp1280
I2
s(I1516
I1540
tp1281
I2
s(I2686
I2334
tp1282
I4
s(I1446
I1371
tp1283
I3
s(I655
I339
tp1284
I2
s(I3572
I708
tp1285
I3
s(I3553
I2240
tp1286
I2
s(I1679
I2485
tp1287
I6
s(I954
I2655
tp1288
I4
s(I2025
I416
tp1289
I3
s(I2754
I1551
tp1290
I4
s(I3569
I1705
tp1291
I2
s(I2925
I1112
tp1292
I2
s(I3595
I1705
tp1293
I1
s(I749
I816
tp1294
I4
s(I1737
I2764
tp1295
I1
s(I25
I20
tp1296
I2
s(I1472
I1540
tp1297
I6
s(I2392
I1409
tp1298
I1
s(I838
I333
tp1299
I1
s(I2360
I2332
tp1300
I1
s(I2981
I1118
tp1301
I1
s(I1492
I1540
tp1302
I4
s(I1718
I388
tp1303
I1
s(I316
I343
tp1304
I2
s(I601
I2035
tp1305
I3
s(I321
I337
tp1306
I1
s(I1689
I418
tp1307
I1
s(I1561
I1568
tp1308
I2
s(I1785
I2764
tp1309
I2
s(I2255
I2323
tp1310
I4
s(I887
I338
tp1311
I4
s(I1480
I1112
tp1312
I1
s(I303
I342
tp1313
I2
s(I359
I341
tp1314
I2
s(I1351
I2767
tp1315
I2
s(I1045
I992
tp1316
I1
s(I1672
I418
tp1317
I2
s(I493
I527
tp1318
I5
s(I2465
I2470
tp1319
I2
s(I1795
I1746
tp1320
I4
s(I632
I271
tp1321
I6
s(I850
I826
tp1322
I6
s(I2511
I340
tp1323
I2
s(I1990
I2039
tp1324
I3
s(I2194
I393
tp1325
I5
s(I1847
I2497
tp1326
I8
s(I2167
I2208
tp1327
I4
s(I592
I2035
tp1328
I2
s(I933
I407
tp1329
I3
s(I886
I2655
tp1330
I3
s(I2922
I2332
tp1331
I1
s(I2646
I1109
tp1332
I2
s(I1231
I2545
tp1333
I3
s(I1536
I534
tp1334
I3
s(I3564
I143
tp1335
I1
s(I82
I22
tp1336
I5
s(I2263
I415
tp1337
I1
s(I621
I526
tp1338
I2
s(I1718
I2764
tp1339
I1
s(I215
I278
tp1340
I3
s(I1495
I2653
tp1341
I5
s(I256
I268
tp1342
I5
s(I1217
I1107
tp1343
I2
s(I181
I21
tp1344
I2
s(I1044
I402
tp1345
I2
s(I285
I324
tp1346
I2
s(I1654
I1610
tp1347
I1
s(I680
I708
tp1348
I5
s(I1085
I2765
tp1349
I4
s(I2424
I2334
tp1350
I1
s(I2259
I2322
tp1351
I4
s(I791
I816
tp1352
I4
s(I741
I331
tp1353
I1
s(I100
I146
tp1354
I3
s(I3627
I194
tp1355
I1
s(I1195
I403
tp1356
I1
s(I605
I534
tp1357
I3
s(I17
I21
tp1358
I1
s(I112
I149
tp1359
I1
s(I458
I468
tp1360
I2
s(I738
I815
tp1361
I2
s(I2055
I2038
tp1362
I6
s(I2835
I2868
tp1363
I3
s(I85
I147
tp1364
I2
s(I506
I527
tp1365
I4
s(I694
I409
tp1366
I3
s(I1476
I2640
tp1367
I5
s(I1578
I1555
tp1368
I2
s(I1805
I388
tp1369
I3
s(I2247
I2322
tp1370
I1
s(I1425
I1375
tp1371
I3
s(I2907
I2763
tp1372
I3
s(I1635
I2770
tp1373
I3
s(I322
I342
tp1374
I2
s(I1562
I1593
tp1375
I2
s(I2064
I416
tp1376
I4
s(I1342
I1363
tp1377
I4
s(I3557
I823
tp1378
I1
s(I497
I526
tp1379
I4
s(I242
I148
tp1380
I1
s(I1553
I324
tp1381
I6
s(I1683
I146
tp1382
I1
s(I159
I1095
tp1383
I1
s(I592
I605
tp1384
I1
s(I1339
I1363
tp1385
I3
s(I76
I19
tp1386
I2
s(I206
I268
tp1387
I5
s(I2395
I2334
tp1388
I3
s(I1628
I1610
tp1389
I2
s(I1944
I2038
tp1390
I1
s(I3634
I853
tp1391
I1
s(I2366
I2470
tp1392
I4
s(I235
I268
tp1393
I2
s(I240
I268
tp1394
I3
s(I629
I527
tp1395
I3
s(I3528
I525
tp1396
I1
s(I2836
I2867
tp1397
I2
s(I1460
I1112
tp1398
I1
s(I282
I343
tp1399
I2
s(I1827
I2497
tp1400
I5
s(I3582
I3645
tp1401
I1
s(I77
I23
tp1402
I2
s(I3604
I2240
tp1403
I2
s(I1908
I395
tp1404
I1
s(I1695
I418
tp1405
I4
s(I134
I140
tp1406
I2
s(I2251
I2323
tp1407
I4
s(I2048
I2038
tp1408
I5
s(I59
I2522
tp1409
I3
s(I1872
I1144
tp1410
I2
s(I1839
I1144
tp1411
I2
s(I2178
I393
tp1412
I3
s(I1691
I2485
tp1413
I2
s(I2900
I21
tp1414
I1
s(I200
I140
tp1415
I3
s(I1645
I1383
tp1416
I3
s(I249
I268
tp1417
I4
s(I1048
I1155
tp1418
I1
s(I768
I816
tp1419
I4
s(I1290
I2209
tp1420
I6
s(I589
I2035
tp1421
I2
s(I3558
I460
tp1422
I1
s(I1298
I2209
tp1423
I2
s(I2725
I1118
tp1424
I1
s(I1312
I2645
tp1425
I6
s(I624
I991
tp1426
I2
s(I2296
I2238
tp1427
I4
s(I1568
I1593
tp1428
I2
s(I552
I534
tp1429
I2
s(I3622
I2037
tp1430
I1
s(I3536
I349
tp1431
I1
s(I2636
I2322
tp1432
I1
s(I1059
I402
tp1433
I2
s(I789
I815
tp1434
I1
s(I1868
I395
tp1435
I1
s(I1486
I1112
tp1436
I1
s(I1840
I1144
tp1437
I3
s(I2690
I2334
tp1438
I5
s(I1304
I2644
tp1439
I2
s(I1571
I1551
tp1440
I4
s(I593
I2035
tp1441
I7
s(I598
I534
tp1442
I3
s(I1186
I1247
tp1443
I2
s(I567
I605
tp1444
I5
s(I2418
I401
tp1445
I2
s(I3576
I324
tp1446
I1
s(I720
I641
tp1447
I1
s(I2242
I415
tp1448
I1
s(I2903
I1109
tp1449
I2
s(I2863
I2890
tp1450
I3
s(I2304
I2238
tp1451
I3
s(I2287
I2318
tp1452
I2
s(I2708
I388
tp1453
I2
s(I2062
I2493
tp1454
I1
s(I3666
I2868
tp1455
I1
s(I2786
I2889
tp1456
I2
s(I1686
I2644
tp1457
I6
s(I1332
I417
tp1458
I1
s(I2161
I2209
tp1459
I2
s(I1192
I1247
tp1460
I3
s(I70
I1118
tp1461
I1
s(I1987
I1104
tp1462
I4
s(I3578
I337
tp1463
I1
s(I575
I1177
tp1464
I2
s(I1495
I1112
tp1465
I2
s(I1889
I2497
tp1466
I3
s(I1576
I324
tp1467
I4
s(I1636
I1610
tp1468
I2
s(I969
I987
tp1469
I2
s(I3520
I143
tp1470
I2
s(I3677
I3433
tp1471
I1
s(I2780
I1109
tp1472
I11
s(I1438
I1372
tp1473
I4
s(I1335
I2645
tp1474
I6
s(I358
I343
tp1475
I2
s(I60
I2522
tp1476
I1
s(I202
I278
tp1477
I3
s(I1808
I1746
tp1478
I1
s(I2727
I2767
tp1479
I2
s(I121
I150
tp1480
I1
s(I2040
I1104
tp1481
I1
s(I554
I2035
tp1482
I4
s(I1411
I1374
tp1483
I5
s(I257
I271
tp1484
I5
s(I3659
I460
tp1485
I1
s(I636
I525
tp1486
I4
s(I979
I988
tp1487
I5
s(I1462
I2653
tp1488
I2
s(I2852
I2868
tp1489
I4
s(I753
I815
tp1490
I4
s(I757
I815
tp1491
I4
s(I2052
I2035
tp1492
I3
s(I1453
I1112
tp1493
I2
s(I42
I24
tp1494
I2
s(I1721
I1746
tp1495
I7
s(I3517
I2868
tp1496
I1
s(I1315
I417
tp1497
I6
s(I2159
I393
tp1498
I6
s(I1228
I403
tp1499
I1
s(I3602
I1245
tp1500
I3
s(I830
I854
tp1501
I3
s(I241
I278
tp1502
I1
s(I2368
I415
tp1503
I2
s(I2398
I2334
tp1504
I2
s(I574
I2035
tp1505
I3
s(I980
I987
tp1506
I2
s(I2817
I1109
tp1507
I8
s(I1834
I709
tp1508
I2
s(I2183
I2208
tp1509
I1
s(I3560
I823
tp1510
I2
s(I1298
I416
tp1511
I3
s(I1053
I670
tp1512
I4
s(I95
I147
tp1513
I3
s(I2187
I393
tp1514
I4
s(I2737
I1374
tp1515
I4
s(I834
I852
tp1516
I4
s(I31
I2522
tp1517
I3
s(I1496
I1540
tp1518
I2
s(I1210
I2655
tp1519
I4
s(I1781
I1705
tp1520
I4
s(I196
I140
tp1521
I3
s(I1264
I1269
tp1522
I2
s(I952
I407
tp1523
I4
s(I292
I341
tp1524
I3
s(I1412
I1375
tp1525
I4
s(I1215
I1247
tp1526
I4
s(I2386
I1409
tp1527
I6
s(I3527
I201
tp1528
I2
s(I501
I526
tp1529
I1
s(I3607
I147
tp1530
I2
s(I2378
I2334
tp1531
I4
s(I2018
I2035
tp1532
I2
s(I445
I469
tp1533
I2
s(I125
I147
tp1534
I3
s(I2469
I401
tp1535
I3
s(I1344
I1363
tp1536
I4
s(I2697
I419
tp1537
I2
s(I3655
I24
tp1538
I1
s(I1878
I709
tp1539
I2
s(I3638
I1363
tp1540
I1
s(I2190
I416
tp1541
I5
s(I3592
I349
tp1542
I3
s(I138
I148
tp1543
I3
s(I1088
I814
tp1544
I6
s(I1348
I2645
tp1545
I3
s(I1829
I2497
tp1546
I6
s(I1833
I1144
tp1547
I1
s(I2861
I1109
tp1548
I1
s(I98
I1095
tp1549
I1
s(I116
I140
tp1550
I2
s(I2947
I2765
tp1551
I4
s(I905
I2655
tp1552
I3
s(I248
I268
tp1553
I1
s(I1414
I1374
tp1554
I2
s(I1801
I1746
tp1555
I1
s(I2883
I2866
tp1556
I3
s(I666
I395
tp1557
I2
s(I1784
I399
tp1558
I4
s(I314
I1105
tp1559
I2
s(I1675
I2645
tp1560
I2
s(I1483
I1540
tp1561
I1
s(I449
I459
tp1562
I2
s(I2261
I2322
tp1563
I2
s(I2301
I2319
tp1564
I1
s(I2450
I1409
tp1565
I2
s(I694
I707
tp1566
I3
s(I2732
I930
tp1567
I3
s(I2041
I1104
tp1568
I6
s(I898
I988
tp1569
I5
s(I187
I21
tp1570
I2
s(I1237
I406
tp1571
I1
s(I2779
I1109
tp1572
I5
s(I2723
I1118
tp1573
I1
s(I3534
I140
tp1574
I2
s(I514
I525
tp1575
I5
s(I74
I20
tp1576
I1
s(I2449
I1159
tp1577
I1
s(I2971
I994
tp1578
I3
s(I2008
I416
tp1579
I1
s(I194
I1540
tp1580
I3
s(I3592
I324
tp1581
I1
s(I2761
I813
tp1582
I1
s(I1455
I1540
tp1583
I1
s(I1525
I2640
tp1584
I3
s(I254
I277
tp1585
I3
s(I1616
I2534
tp1586
I3
s(I737
I813
tp1587
I1
s(I2064
I2038
tp1588
I6
s(I306
I338
tp1589
I1
s(I1630
I331
tp1590
I1
s(I184
I469
tp1591
I2
s(I2288
I2323
tp1592
I3
s(I1859
I709
tp1593
I2
s(I1306
I2767
tp1594
I3
s(I1692
I418
tp1595
I6
s(I949
I407
tp1596
I3
s(I736
I813
tp1597
I1
s(I1640
I1706
tp1598
I3
s(I293
I339
tp1599
I2
s(I3680
I2545
tp1600
I1
s(I353
I339
tp1601
I4
s(I33
I20
tp1602
I4
s(I300
I336
tp1603
I1
s(I154
I1095
tp1604
I1
s(I139
I143
tp1605
I3
s(I1334
I417
tp1606
I2
s(I1996
I2038
tp1607
I4
s(I2952
I2334
tp1608
I2
s(I625
I271
tp1609
I3
s(I626
I407
tp1610
I2
s(I1033
I992
tp1611
I4
s(I180
I468
tp1612
I2
s(I1642
I1610
tp1613
I2
s(I2348
I2470
tp1614
I4
s(I233
I201
tp1615
I4
s(I3626
I3538
tp1616
I1
s(I3600
I822
tp1617
I1
s(I3546
I1705
tp1618
I1
s(I2285
I2318
tp1619
I3
s(I3631
I2661
tp1620
I1
s(I2920
I1115
tp1621
I2
s(I2288
I2322
tp1622
I6
s(I2264
I2238
tp1623
I3
s(I1894
I395
tp1624
I1
s(I663
I395
tp1625
I2
s(I1525
I2498
tp1626
I3
s(I2892
I416
tp1627
I3
s(I355
I341
tp1628
I4
s(I3628
I261
tp1629
I3
s(I912
I987
tp1630
I2
s(I674
I707
tp1631
I3
s(I508
I526
tp1632
I2
s(I1234
I1247
tp1633
I4
s(I1717
I1746
tp1634
I4
s(I558
I605
tp1635
I3
s(I2698
I2498
tp1636
I4
s(I923
I407
tp1637
I2
s(I288
I342
tp1638
I5
s(I2191
I393
tp1639
I6
s(I919
I930
tp1640
I1
s(I142
I1155
tp1641
I1
s(I211
I278
tp1642
I1
s(I2464
I2334
tp1643
I2
s(I3509
I2534
tp1644
I1
s(I1317
I417
tp1645
I2
s(I2800
I2867
tp1646
I5
s(I1988
I1104
tp1647
I1
s(I2696
I709
tp1648
I1
s(I2635
I2322
tp1649
I1
s(I1325
I417
tp1650
I4
s(I3644
I460
tp1651
I3
s(I1878
I1144
tp1652
I4
s(I727
I395
tp1653
I2
s(I1338
I2493
tp1654
I5
s(I2460
I2332
tp1655
I1
s(I1797
I1746
tp1656
I8
s(I252
I271
tp1657
I2
s(I1836
I709
tp1658
I2
s(I2754
I419
tp1659
I2
s(I908
I988
tp1660
I1
s(I2755
I1610
tp1661
I2
s(I1989
I2038
tp1662
I6
s(I3616
I641
tp1663
I2
s(I2310
I2313
tp1664
I3
s(I462
I1269
tp1665
I1
s(I2051
I2038
tp1666
I3
s(I2922
I1159
tp1667
I1
s(I3676
I2039
tp1668
I2
s(I1828
I273
tp1669
I1
s(I2267
I2323
tp1670
I4
s(I1557
I419
tp1671
I4
s(I3594
I271
tp1672
I2
s(I1316
I1367
tp1673
I6
s(I3561
I1371
tp1674
I1
s(I1499
I1540
tp1675
I2
s(I2846
I2867
tp1676
I5
s(I191
I459
tp1677
I5
s(I177
I467
tp1678
I2
s(I1579
I324
tp1679
I4
s(I1793
I2764
tp1680
I4
s(I1085
I393
tp1681
I6
s(I737
I816
tp1682
I5
s(I3608
I349
tp1683
I2
s(I2010
I1104
tp1684
I4
s(I1437
I406
tp1685
I3
s(I7
I19
tp1686
I1
s(I136
I1096
tp1687
I1
s(I176
I21
tp1688
I1
s(I1264
I410
tp1689
I1
s(I3663
I3538
tp1690
I1
s(I967
I988
tp1691
I4
s(I697
I707
tp1692
I5
s(I1237
I1244
tp1693
I3
s(I2387
I2334
tp1694
I3
s(I2203
I416
tp1695
I3
s(I667
I641
tp1696
I3
s(I778
I331
tp1697
I3
s(I1442
I1372
tp1698
I2
s(I3683
I22
tp1699
I3
s(I104
I140
tp1700
I3
s(I2333
I2334
tp1701
I2
s(I1201
I414
tp1702
I2
s(I1770
I2764
tp1703
I1
s(I2295
I2313
tp1704
I3
s(I13
I23
tp1705
I2
s(I1820
I2497
tp1706
I2
s(I906
I407
tp1707
I4
s(I1647
I814
tp1708
I3
s(I2294
I2318
tp1709
I5
s(I896
I930
tp1710
I2
s(I1568
I987
tp1711
I1
s(I111
I141
tp1712
I2
s(I1436
I1374
tp1713
I4
s(I498
I527
tp1714
I2
s(I2750
I1104
tp1715
I3
s(I1476
I1540
tp1716
I1
s(I2201
I416
tp1717
I4
s(I1228
I1107
tp1718
I2
s(I3525
I349
tp1719
I3
s(I1731
I1746
tp1720
I2
s(I1503
I2039
tp1721
I3
s(I2173
I393
tp1722
I6
s(I1182
I1107
tp1723
I2
s(I2819
I2890
tp1724
I3
s(I2050
I1104
tp1725
I4
s(I947
I338
tp1726
I2
s(I956
I1115
tp1727
I2
s(I330
I1105
tp1728
I2
s(I94
I148
tp1729
I3
s(I1771
I1705
tp1730
I4
s(I1858
I2497
tp1731
I1
s(I746
I824
tp1732
I4
s(I3683
I3433
tp1733
I2
s(I1742
I399
tp1734
I3
s(I3633
I140
tp1735
I2
s(I2527
I149
tp1736
I2
s(I2682
I268
tp1737
I2
s(I1621
I2534
tp1738
I4
s(I704
I641
tp1739
I3
s(I689
I339
tp1740
I3
s(I968
I407
tp1741
I2
s(I1520
I1540
tp1742
I6
s(I1505
I2653
tp1743
I3
s(I2858
I1109
tp1744
I2
s(I1201
I1247
tp1745
I1
s(I1035
I992
tp1746
I1
s(I2408
I401
tp1747
I2
s(I1791
I408
tp1748
I3
s(I1424
I399
tp1749
I4
s(I2975
I1177
tp1750
I2
s(I730
I816
tp1751
I2
s(I158
I1095
tp1752
I1
s(I2827
I2867
tp1753
I5
s(I1800
I399
tp1754
I3
s(I2294
I2238
tp1755
I5
s(I2914
I1159
tp1756
I1
s(I2176
I2208
tp1757
I3
s(I1552
I336
tp1758
I4
s(I2299
I2238
tp1759
I1
s(I1649
I1383
tp1760
I3
s(I581
I337
tp1761
I3
s(I1698
I418
tp1762
I1
s(I1765
I388
tp1763
I3
s(I16
I23
tp1764
I1
s(I2910
I534
tp1765
I2
s(I2680
I1177
tp1766
I2
s(I3552
I1705
tp1767
I3
s(I3678
I2545
tp1768
I2
s(I2812
I2868
tp1769
I3
s(I791
I815
tp1770
I4
s(I1581
I1568
tp1771
I2
s(I119
I141
tp1772
I3
s(I1724
I1746
tp1773
I1
s(I2363
I1409
tp1774
I5
s(I2939
I2491
tp1775
I3
s(I1612
I2770
tp1776
I2
s(I1025
I670
tp1777
I3
s(I170
I140
tp1778
I4
s(I2012
I2038
tp1779
I6
s(I2250
I2322
tp1780
I4
s(I2236
I2322
tp1781
I2
s(I3575
I140
tp1782
I2
s(I3625
I1383
tp1783
I1
s(I479
I991
tp1784
I2
s(I1650
I1610
tp1785
I2
s(I634
I527
tp1786
I5
s(I1261
I705
tp1787
I2
s(I2060
I2036
tp1788
I3
s(I1664
I2485
tp1789
I2
s(I2231
I3645
tp1790
I1
s(I53
I22
tp1791
I5
s(I1799
I408
tp1792
I2
s(I1456
I2653
tp1793
I3
s(I2047
I1104
tp1794
I6
s(I2789
I2867
tp1795
I4
s(I795
I816
tp1796
I2
s(I1804
I1746
tp1797
I1
s(I49
I20
tp1798
I2
s(I2391
I2470
tp1799
I2
s(I2732
I988
tp1800
I3
s(I1783
I1746
tp1801
I1
s(I2841
I2890
tp1802
I1
s(I2399
I2470
tp1803
I4
s(I613
I991
tp1804
I1
s(I3587
I460
tp1805
I3
s(I3582
I416
tp1806
I1
s(I2464
I2470
tp1807
I2
s(I169
I469
tp1808
I2
s(I1831
I1144
tp1809
I4
s(I3618
I641
tp1810
I3
s(I880
I988
tp1811
I6
s(I899
I338
tp1812
I5
s(I1587
I1593
tp1813
I2
s(I2907
I854
tp1814
I3
s(I543
I1177
tp1815
I2
s(I1867
I1144
tp1816
I4
s(I1904
I147
tp1817
I6
s(I673
I395
tp1818
I1
s(I1580
I419
tp1819
I2
s(I1038
I992
tp1820
I2
s(I582
I2035
tp1821
I3
s(I1586
I1568
tp1822
I2
s(I3518
I993
tp1823
I1
s(I1671
I1109
tp1824
I3
s(I609
I534
tp1825
I3
s(I97
I140
tp1826
I5
s(I1651
I1706
tp1827
I4
s(I1975
I2038
tp1828
I3
s(I1421
I399
tp1829
I4
s(I2029
I1104
tp1830
I6
s(I1533
I1540
tp1831
I8
s(I72
I19
tp1832
I4
s(I1715
I2764
tp1833
I3
s(I421
I22
tp1834
I4
s(I1055
I1155
tp1835
I1
s(I2399
I2334
tp1836
I4
s(I1197
I2655
tp1837
I5
s(I1641
I2534
tp1838
I4
s(I65
I20
tp1839
I2
s(I1617
I2770
tp1840
I5
s(I1020
I402
tp1841
I4
s(I2936
I1372
tp1842
I3
s(I3636
I2037
tp1843
I2
s(I1823
I709
tp1844
I1
s(I3541
I1245
tp1845
I1
s(I3602
I2545
tp1846
I3
s(I669
I641
tp1847
I3
s(I1723
I388
tp1848
I2
s(I2862
I2889
tp1849
I1
s(I2398
I2470
tp1850
I2
s(I3626
I261
tp1851
I1
s(I1588
I1593
tp1852
I1
s(I749
I815
tp1853
I4
s(I1799
I1746
tp1854
I1
s(I2824
I2890
tp1855
I2
s(I829
I854
tp1856
I3
s(I1673
I2768
tp1857
I1
s(I843
I854
tp1858
I2
s(I3583
I194
tp1859
I1
s(I2012
I416
tp1860
I3
s(I11
I24
tp1861
I2
s(I1514
I2653
tp1862
I4
s(I53
I24
tp1863
I3
s(I2293
I2323
tp1864
I2
s(I938
I2655
tp1865
I2
s(I3664
I1271
tp1866
I2
s(I591
I536
tp1867
I3
s(I1200
I2655
tp1868
I3
s(I955
I988
tp1869
I3
s(I1241
I1107
tp1870
I2
s(I1464
I1540
tp1871
I4
s(I2731
I407
tp1872
I2
s(I1818
I709
tp1873
I2
s(I3617
I1363
tp1874
I1
s(I970
I1115
tp1875
I2
s(I971
I1115
tp1876
I2
s(I1573
I987
tp1877
I2
s(I2896
I1118
tp1878
I1
s(I5
I22
tp1879
I5
s(I100
I148
tp1880
I1
s(I3609
I22
tp1881
I1
s(I2263
I2319
tp1882
I2
s(I1559
I324
tp1883
I4
s(I1648
I2534
tp1884
I5
s(I3556
I201
tp1885
I2
s(I2370
I401
tp1886
I1
s(I457
I468
tp1887
I1
s(I493
I526
tp1888
I1
s(I900
I338
tp1889
I2
s(I888
I1115
tp1890
I2
s(I1027
I993
tp1891
I7
s(I706
I641
tp1892
I5
s(I617
I407
tp1893
I2
s(I750
I815
tp1894
I2
s(I2014
I1104
tp1895
I1
s(I2735
I399
tp1896
I1
s(I1037
I992
tp1897
I4
s(I1435
I1373
tp1898
I3
s(I212
I268
tp1899
I3
s(I1526
I1112
tp1900
I2
s(I64
I2522
tp1901
I3
s(I2728
I343
tp1902
I1
s(I1050
I992
tp1903
I5
s(I1523
I1540
tp1904
I1
s(I1522
I1540
tp1905
I2
s(I421
I24
tp1906
I3
s(I2821
I2867
tp1907
I2
s(I647
I339
tp1908
I1
s(I1484
I2653
tp1909
I3
s(I1687
I146
tp1910
I1
s(I29
I24
tp1911
I7
s(I2206
I393
tp1912
I4
s(I1909
I1144
tp1913
I2
s(I2405
I2334
tp1914
I5
s(I3631
I2485
tp1915
I1
s(I2900
I467
tp1916
I1
s(I190
I21
tp1917
I3
s(I1018
I992
tp1918
I4
s(I2505
I342
tp1919
I2
s(I1350
I2645
tp1920
I3
s(I1494
I2640
tp1921
I5
s(I1669
I1702
tp1922
I2
s(I240
I278
tp1923
I2
s(I2838
I2867
tp1924
I3
s(I1510
I2039
tp1925
I3
s(I1055
I994
tp1926
I2
s(I1567
I1593
tp1927
I1
s(I2374
I2491
tp1928
I1
s(I2193
I2765
tp1929
I3
s(I2303
I2238
tp1930
I3
s(I85
I146
tp1931
I2
s(I250
I268
tp1932
I5
s(I2455
I415
tp1933
I5
s(I839
I852
tp1934
I4
s(I1896
I1144
tp1935
I4
s(I2805
I1109
tp1936
I2
s(I1614
I2770
tp1937
I5
s(I3493
I141
tp1938
I1
s(I11
I22
tp1939
I2
s(I655
I395
tp1940
I2
s(I2446
I1409
tp1941
I4
s(I2016
I1104
tp1942
I1
s(I2403
I2470
tp1943
I2
s(I3557
I822
tp1944
I1
s(I2720
I1118
tp1945
I1
s(I759
I813
tp1946
I1
s(I1398
I1375
tp1947
I1
s(I667
I707
tp1948
I3
s(I945
I338
tp1949
I2
s(I284
I338
tp1950
I1
s(I27
I2522
tp1951
I3
s(I2162
I2209
tp1952
I5
s(I2750
I2036
tp1953
I2
s(I2901
I2332
tp1954
I1
s(I5
I24
tp1955
I3
s(I1233
I2655
tp1956
I5
s(I2426
I415
tp1957
I5
s(I1740
I1746
tp1958
I7
s(I66
I22
tp1959
I5
s(I3668
I3433
tp1960
I1
s(I1477
I2498
tp1961
I3
s(I1944
I2039
tp1962
I3
s(I3537
I823
tp1963
I3
s(I235
I271
tp1964
I5
s(I553
I536
tp1965
I3
s(I1760
I1746
tp1966
I5
s(I312
I341
tp1967
I4
s(I1656
I1610
tp1968
I2
s(I1287
I393
tp1969
I8
s(I629
I526
tp1970
I1
s(I3587
I459
tp1971
I3
s(I73
I19
tp1972
I1
s(I616
I525
tp1973
I4
s(I282
I340
tp1974
I2
s(I2943
I393
tp1975
I2
s(I2745
I402
tp1976
I3
s(I1701
I418
tp1977
I3
s(I2175
I393
tp1978
I2
s(I1458
I2039
tp1979
I2
s(I2774
I2867
tp1980
I2
s(I2459
I401
tp1981
I1
s(I226
I268
tp1982
I3
s(I134
I141
tp1983
I1
s(I2251
I2322
tp1984
I7
s(I1690
I1702
tp1985
I4
s(I1410
I1371
tp1986
I4
s(I2034
I2036
tp1987
I3
s(I553
I141
tp1988
I3
s(I3637
I271
tp1989
I2
s(I918
I407
tp1990
I1
s(I2053
I416
tp1991
I2
s(I1589
I987
tp1992
I2
s(I922
I407
tp1993
I2
s(I1592
I987
tp1994
I2
s(I121
I147
tp1995
I3
s(I1779
I1746
tp1996
I3
s(I3596
I338
tp1997
I2
s(I2821
I1109
tp1998
I6
s(I793
I815
tp1999
I1
s(I2385
I2470
tp2000
I3
s(I579
I337
tp2001
I3
s(I1847
I1144
tp2002
I2
s(I1707
I1746
tp2003
I5
s(I2694
I854
tp2004
I3
s(I2305
I2322
tp2005
I5
s(I1552
I1568
tp2006
I1
s(I1864
I2497
tp2007
I8
s(I1475
I2039
tp2008
I3
s(I2434
I2334
tp2009
I4
s(I348
I2889
tp2010
I3
s(I2687
I401
tp2011
I1
s(I2761
I816
tp2012
I1
s(I485
I271
tp2013
I3
s(I505
I526
tp2014
I4
s(I2042
I416
tp2015
I1
s(I110
I148
tp2016
I4
s(I2521
I467
tp2017
I2
s(I1857
I2497
tp2018
I3
s(I2683
I278
tp2019
I1
s(I2333
I401
tp2020
I2
s(I2845
I2868
tp2021
I1
s(I921
I1115
tp2022
I2
s(I1633
I2534
tp2023
I5
s(I3517
I3501
tp2024
I1
s(I1440
I1375
tp2025
I2
s(I946
I338
tp2026
I2
s(I3497
I536
tp2027
I3
s(I602
I2035
tp2028
I7
s(I590
I534
tp2029
I3
s(I1786
I408
tp2030
I2
s(I702
I641
tp2031
I5
s(I2418
I2334
tp2032
I4
s(I833
I854
tp2033
I3
s(I904
I930
tp2034
I4
s(I2818
I2866
tp2035
I6
s(I3649
I3501
tp2036
I1
s(I695
I707
tp2037
I5
s(I3579
I324
tp2038
I1
s(I2884
I2866
tp2039
I2
s(I2973
I526
tp2040
I5
s(I1556
I1551
tp2041
I4
s(I2265
I2323
tp2042
I4
s(I1719
I408
tp2043
I2
s(I2287
I2238
tp2044
I3
s(I32
I23
tp2045
I2
s(I1724
I408
tp2046
I2
s(I2462
I2491
tp2047
I1
s(I1889
I1144
tp2048
I1
s(I3615
I349
tp2049
I3
s(I3670
I855
tp2050
I1
s(I700
I395
tp2051
I2
s(I2270
I2318
tp2052
I5
s(I630
I411
tp2053
I2
s(I1782
I2764
tp2054
I4
s(I2376
I2332
tp2055
I1
s(I1848
I709
tp2056
I2
s(I1883
I147
tp2057
I3
s(I484
I525
tp2058
I1
s(I358
I340
tp2059
I2
s(I2290
I2238
tp2060
I4
s(I167
I418
tp2061
I1
s(I1500
I2498
tp2062
I3
s(I2175
I2209
tp2063
I6
s(I3567
I22
tp2064
I1
s(I2261
I2319
tp2065
I2
s(I2535
I2522
tp2066
I2
s(I3555
I141
tp2067
I1
s(I3556
I261
tp2068
I3
s(I1675
I418
tp2069
I4
s(I832
I852
tp2070
I3
s(I2934
I271
tp2071
I3
s(I612
I526
tp2072
I1
s(I2445
I1159
tp2073
I1
s(I512
I991
tp2074
I1
s(I1020
I992
tp2075
I5
s(I3675
I2333
tp2076
I2
s(I1216
I1245
tp2077
I3
s(I1362
I417
tp2078
I4
s(I3579
I349
tp2079
I3
s(I2469
I2334
tp2080
I7
s(I2756
I1610
tp2081
I1
s(I3525
I324
tp2082
I1
s(I3508
I140
tp2083
I2
s(I2426
I1409
tp2084
I5
s(I764
I816
tp2085
I5
s(I3662
I1363
tp2086
I1
s(I693
I641
tp2087
I4
s(I3578
I1705
tp2088
I1
s(I2912
I2764
tp2089
I3
s(I2948
I2764
tp2090
I4
s(I1236
I1107
tp2091
I1
s(I2358
I2332
tp2092
I1
s(I1439
I1374
tp2093
I5
s(I959
I2655
tp2094
I3
s(I2712
I1746
tp2095
I4
s(I71
I20
tp2096
I6
s(I2844
I2866
tp2097
I2
s(I915
I338
tp2098
I5
s(I1637
I1706
tp2099
I4
s(I920
I338
tp2100
I2
s(I95
I146
tp2101
I1
s(I3599
I2868
tp2102
I1
s(I12
I19
tp2103
I2
s(I51
I24
tp2104
I5
s(I2160
I393
tp2105
I4
s(I2008
I2038
tp2106
I1
s(I1327
I1363
tp2107
I3
s(I299
I339
tp2108
I3
s(I3606
I853
tp2109
I1
s(I1830
I147
tp2110
I5
s(I488
I526
tp2111
I2
s(I961
I987
tp2112
I1
s(I1533
I2653
tp2113
I1
s(I127
I146
tp2114
I3
s(I1948
I1104
tp2115
I7
s(I950
I1115
tp2116
I2
s(I2415
I2334
tp2117
I5
s(I359
I337
tp2118
I1
s(I1417
I406
tp2119
I1
s(I931
I2655
tp2120
I3
s(I1835
I2497
tp2121
I2
s(I2632
I2493
tp2122
I5
s(I2565
I1109
tp2123
I1
s(I1700
I1109
tp2124
I2
s(I3541
I2545
tp2125
I1
s(I3625
I2534
tp2126
I1
s(I116
I141
tp2127
I1
s(I2174
I416
tp2128
I3
s(I899
I2655
tp2129
I3
s(I2818
I1109
tp2130
I3
s(I976
I1115
tp2131
I2
s(I593
I533
tp2132
I1
s(I351
I342
tp2133
I5
s(I1986
I2038
tp2134
I7
s(I1668
I418
tp2135
I3
s(I587
I1177
tp2136
I2
s(I2843
I2866
tp2137
I5
s(I1343
I2647
tp2138
I3
s(I1467
I2039
tp2139
I3
s(I665
I395
tp2140
I3
s(I2697
I2497
tp2141
I5
s(I245
I278
tp2142
I4
s(I1190
I1247
tp2143
I4
s(I2352
I2334
tp2144
I6
s(I1461
I2653
tp2145
I1
s(I364
I1105
tp2146
I2
s(I477
I525
tp2147
I4
s(I757
I816
tp2148
I2
s(I196
I418
tp2149
I5
s(I499
I407
tp2150
I1
s(I500
I271
tp2151
I5
s(I1574
I336
tp2152
I4
s(I1807
I2764
tp2153
I4
s(I1210
I1247
tp2154
I4
s(I2391
I2334
tp2155
I2
s(I3661
I416
tp2156
I1
s(I1618
I331
tp2157
I1
s(I1303
I2493
tp2158
I2
s(I149
I388
tp2159
I3
s(I3549
I22
tp2160
I1
s(I3515
I337
tp2161
I2
s(I2506
I340
tp2162
I2
s(I1526
I2653
tp2163
I4
s(I1456
I1112
tp2164
I2
s(I3528
I271
tp2165
I2
s(I633
I407
tp2166
I3
s(I3503
I460
tp2167
I3
s(I123
I148
tp2168
I3
s(I2851
I2866
tp2169
I4
s(I2506
I1105
tp2170
I2
s(I949
I987
tp2171
I2
s(I2766
I147
tp2172
I5
s(I952
I987
tp2173
I2
s(I2060
I1104
tp2174
I3
s(I1767
I408
tp2175
I5
s(I1622
I814
tp2176
I6
s(I3675
I2471
tp2177
I2
s(I3527
I261
tp2178
I3
s(I2905
I526
tp2179
I1
s(I3545
I2471
tp2180
I2
s(I1191
I1244
tp2181
I2
s(I89
I149
tp2182
I2
s(I2275
I2319
tp2183
I2
s(I2185
I393
tp2184
I5
s(I663
I339
tp2185
I2
s(I1218
I1107
tp2186
I2
s(I743
I815
tp2187
I3
s(I1060
I402
tp2188
I3
s(I1204
I2655
tp2189
I3
s(I3600
I823
tp2190
I1
s(I2635
I2323
tp2191
I1
s(I2421
I2334
tp2192
I2
s(I2311
I2323
tp2193
I3
s(I40
I19
tp2194
I4
s(I3619
I3401
tp2195
I1
s(I494
I527
tp2196
I2
s(I2458
I401
tp2197
I1
s(I901
I1115
tp2198
I2
s(I3682
I24
tp2199
I1
s(I3531
I338
tp2200
I1
s(I1421
I1375
tp2201
I4
s(I962
I1115
tp2202
I1
s(I2483
I395
tp2203
I1
s(I251
I278
tp2204
I4
s(I1229
I406
tp2205
I1
s(I2039
I1118
tp2206
I1
s(I2268
I2322
tp2207
I2
s(I1784
I1746
tp2208
I7
s(I2271
I2313
tp2209
I3
s(I540
I605
tp2210
I1
s(I1842
I1144
tp2211
I6
s(I1448
I2653
tp2212
I2
s(I3645
I2765
tp2213
I3
s(I1024
I402
tp2214
I2
s(I707
I1118
tp2215
I1
s(I3651
I459
tp2216
I1
s(I1869
I273
tp2217
I1
s(I1816
I419
tp2218
I3
s(I2712
I408
tp2219
I5
s(I2759
I467
tp2220
I2
s(I2714
I388
tp2221
I4
s(I2244
I2313
tp2222
I3
s(I2024
I1104
tp2223
I3
s(I1330
I417
tp2224
I5
s(I432
I395
tp2225
I1
s(I584
I536
tp2226
I4
s(I344
I349
tp2227
I3
s(I1753
I388
tp2228
I2
s(I2197
I393
tp2229
I3
s(I516
I527
tp2230
I2
s(I1242
I1247
tp2231
I3
s(I2186
I393
tp2232
I6
s(I216
I279
tp2233
I2
s(I2825
I1109
tp2234
I7
s(I1705
I1746
tp2235
I4
s(I3523
I708
tp2236
I1
s(I2400
I2332
tp2237
I1
s(I1859
I1144
tp2238
I4
s(I941
I407
tp2239
I4
s(I1720
I1746
tp2240
I2
s(I1760
I399
tp2241
I2
s(I2963
I816
tp2242
I2
s(I2257
I2238
tp2243
I6
s(I643
I395
tp2244
I2
s(I1558
I336
tp2245
I2
s(I1549
I401
tp2246
I2
s(I1880
I419
tp2247
I3
s(I2691
I401
tp2248
I3
s(I3404
I3401
tp2249
I2
s(I2834
I2868
tp2250
I4
s(I1063
I994
tp2251
I3
s(I2970
I1746
tp2252
I1
s(I1362
I1367
tp2253
I4
s(I844
I852
tp2254
I3
s(I3672
I2333
tp2255
I1
s(I1623
I1706
tp2256
I3
s(I58
I2522
tp2257
I3
s(I318
I340
tp2258
I1
s(I2267
I2322
tp2259
I4
s(I446
I418
tp2260
I2
s(I2888
I2890
tp2261
I2
s(I114
I148
tp2262
I4
s(I200
I418
tp2263
I3
s(I1800
I1746
tp2264
I6
s(I2918
I822
tp2265
I2
s(I350
I339
tp2266
I3
s(I1553
I1551
tp2267
I4
s(I2377
I2470
tp2268
I2
s(I2702
I1096
tp2269
I1
s(I3684
I22
tp2270
I1
s(I730
I815
tp2271
I4
s(I1408
I1371
tp2272
I4
s(I1058
I670
tp2273
I1
s(I254
I271
tp2274
I3
s(I2903
I2867
tp2275
I2
s(I720
I708
tp2276
I1
s(I296
I342
tp2277
I2
s(I1491
I1540
tp2278
I2
s(I1490
I1540
tp2279
I4
s(I1873
I2497
tp2280
I5
s(I758
I331
tp2281
I4
s(I1468
I1540
tp2282
I1
s(I529
I534
tp2283
I1
s(I1647
I2770
tp2284
I3
s(I2863
I2889
tp2285
I3
s(I1485
I1540
tp2286
I2
s(I3562
I2240
tp2287
I1
s(I1232
I1107
tp2288
I2
s(I94
I146
tp2289
I3
s(I186
I467
tp2290
I4
s(I1570
I324
tp2291
I1
s(I3559
I1705
tp2292
I2
s(I1648
I331
tp2293
I2
s(I104
I141
tp2294
I1
s(I2054
I1104
tp2295
I2
s(I361
I340
tp2296
I1
s(I568
I337
tp2297
I2
s(I32
I20
tp2298
I2
s(I931
I338
tp2299
I5
s(I2400
I1159
tp2300
I1
s(I1820
I2498
tp2301
I2
s(I81
I24
tp2302
I3
s(I227
I201
tp2303
I4
s(I1887
I419
tp2304
I2
s(I1317
I1367
tp2305
I2
s(I3648
I2333
tp2306
I1
s(I111
I140
tp2307
I2
s(I2182
I393
tp2308
I6
s(I1698
I1702
tp2309
I3
s(I2773
I1109
tp2310
I3
s(I635
I526
tp2311
I1
s(I2905
I991
tp2312
I1
s(I1205
I406
tp2313
I2
s(I3665
I349
tp2314
I2
s(I1337
I1363
tp2315
I2
s(I2291
I2322
tp2316
I3
s(I3583
I271
tp2317
I2
s(I1841
I2498
tp2318
I4
s(I3657
I1373
tp2319
I3
s(I1667
I1109
tp2320
I1
s(I311
I341
tp2321
I2
s(I762
I816
tp2322
I4
s(I2352
I2332
tp2323
I1
s(I1652
I814
tp2324
I1
s(I182
I418
tp2325
I2
s(I1049
I670
tp2326
I3
s(I166
I467
tp2327
I1
s(I651
I707
tp2328
I2
s(I1943
I2036
tp2329
I3
s(I2458
I2334
tp2330
I4
s(I2726
I1367
tp2331
I5
s(I2826
I2890
tp2332
I3
s(I964
I338
tp2333
I5
s(I1202
I403
tp2334
I1
s(I1056
I1155
tp2335
I3
s(I1220
I414
tp2336
I2
s(I797
I816
tp2337
I2
s(I2707
I1096
tp2338
I1
s(I908
I930
tp2339
I2
s(I2329
I2322
tp2340
I2
s(I2240
I2318
tp2341
I2
s(I239
I277
tp2342
I2
s(I2417
I2334
tp2343
I1
s(I2457
I1159
tp2344
I1
s(I352
I1105
tp2345
I1
s(I63
I22
tp2346
I2
s(I28
I20
tp2347
I3
s(I118
I1095
tp2348
I1
s(I179
I21
tp2349
I2
s(I215
I268
tp2350
I3
s(I75
I19
tp2351
I3
s(I2718
I2765
tp2352
I4
s(I1754
I1746
tp2353
I4
s(I1527
I1540
tp2354
I3
s(I1235
I1247
tp2355
I2
s(I1736
I408
tp2356
I3
s(I2205
I416
tp2357
I4
s(I781
I824
tp2358
I3
s(I1865
I2498
tp2359
I2
s(I2402
I1409
tp2360
I1
s(I3660
I822
tp2361
I1
s(I3601
I194
tp2362
I1
s(I2201
I2209
tp2363
I3
s(I3574
I2644
tp2364
I1
s(I3519
I1363
tp2365
I1
s(I119
I140
tp2366
I3
s(I2709
I2764
tp2367
I3
s(I547
I337
tp2368
I2
s(I1261
I1271
tp2369
I3
s(I2711
I388
tp2370
I2
s(I1716
I408
tp2371
I2
s(I1862
I395
tp2372
I1
s(I2250
I2323
tp2373
I2
s(I253
I268
tp2374
I3
s(I594
I534
tp2375
I3
s(I3575
I143
tp2376
I3
s(I671
I707
tp2377
I6
s(I1716
I1746
tp2378
I1
s(I2023
I2038
tp2379
I4
s(I2851
I1109
tp2380
I4
s(I1769
I408
tp2381
I2
s(I1060
I992
tp2382
I3
s(I567
I2035
tp2383
I7
s(I3632
I459
tp2384
I2
s(I769
I823
tp2385
I5
s(I1732
I399
tp2386
I2
s(I2204
I393
tp2387
I4
s(I199
I140
tp2388
I3
s(I1669
I2644
tp2389
I6
s(I2668
I1610
tp2390
I2
s(I2665
I2770
tp2391
I6
s(I625
I525
tp2392
I2
s(I1766
I337
tp2393
I2
s(I2841
I2889
tp2394
I1
s(I919
I338
tp2395
I7
s(I1754
I408
tp2396
I5
s(I1332
I1367
tp2397
I1
s(I917
I407
tp2398
I4
s(I2432
I415
tp2399
I5
s(I183
I418
tp2400
I5
s(I1796
I1746
tp2401
I1
s(I1430
I399
tp2402
I1
s(I771
I331
tp2403
I1
s(I3639
I3401
tp2404
I1
s(I2393
I1409
tp2405
I1
s(I1331
I2647
tp2406
I3
s(I1846
I2497
tp2407
I3
s(I2806
I1109
tp2408
I8
s(I2824
I2889
tp2409
I2
s(I367
I342
tp2410
I2
s(I1556
I324
tp2411
I5
s(I975
I407
tp2412
I6
s(I745
I815
tp2413
I2
s(I2820
I2866
tp2414
I4
s(I2378
I2470
tp2415
I4
s(I2792
I2867
tp2416
I2
s(I1690
I418
tp2417
I2
s(I696
I641
tp2418
I3
s(I2441
I2334
tp2419
I7
s(I1736
I1746
tp2420
I2
s(I1771
I408
tp2421
I2
s(I794
I816
tp2422
I2
s(I677
I1118
tp2423
I1
s(I3555
I536
tp2424
I1
s(I1981
I2035
tp2425
I2
s(I356
I1105
tp2426
I2
s(I585
I605
tp2427
I3
s(I1884
I2497
tp2428
I3
s(I2162
I393
tp2429
I3
s(I878
I526
tp2430
I6
s(I2314
I2647
tp2431
I3
s(I3521
I1373
tp2432
I2
s(I1619
I1706
tp2433
I3
s(I1238
I1247
tp2434
I7
s(I1518
I2640
tp2435
I3
s(I980
I407
tp2436
I4
s(I2446
I415
tp2437
I4
s(I887
I2655
tp2438
I2
s(I1570
I1568
tp2439
I2
s(I1027
I992
tp2440
I2
s(I1624
I2534
tp2441
I5
s(I17
I24
tp2442
I6
s(I2404
I2334
tp2443
I3
s(I1434
I1375
tp2444
I4
s(I2292
I415
tp2445
I1
s(I2933
I2765
tp2446
I4
s(I2820
I1109
tp2447
I1
s(I1268
I1269
tp2448
I2
s(I2293
I2322
tp2449
I5
s(I171
I418
tp2450
I2
s(I455
I418
tp2451
I2
s(I39
I20
tp2452
I2
s(I1213
I2545
tp2453
I3
s(I1324
I2767
tp2454
I3
s(I1825
I419
tp2455
I2
s(I2429
I2333
tp2456
I3
s(I318
I343
tp2457
I1
s(I1508
I1540
tp2458
I4
s(I2791
I2866
tp2459
I8
s(I2438
I2334
tp2460
I2
s(I2314
I2767
tp2461
I3
s(I458
I21
tp2462
I5
s(I1527
I2653
tp2463
I1
s(I3526
I536
tp2464
I1
s(I2373
I1409
tp2465
I5
s(I2803
I2890
tp2466
I1
s(I1979
I2038
tp2467
I7
s(I1262
I1270
tp2468
I1
s(I2888
I2889
tp2469
I2
s(I3656
I2640
tp2470
I2
s(I2256
I2322
tp2471
I4
s(I1993
I2036
tp2472
I1
s(I1471
I1540
tp2473
I5
s(I480
I526
tp2474
I6
s(I1243
I1746
tp2475
I7
s(I1651
I2769
tp2476
I5
s(I972
I2655
tp2477
I2
s(I3554
I2039
tp2478
I1
s(I2199
I2765
tp2479
I4
s(I2577
I2039
tp2480
I3
s(I2789
I1109
tp2481
I9
s(I936
I988
tp2482
I3
s(I2205
I2209
tp2483
I3
s(I744
I815
tp2484
I2
s(I928
I988
tp2485
I3
s(I1448
I1112
tp2486
I1
s(I851
I854
tp2487
I3
s(I698
I641
tp2488
I6
s(I1911
I395
tp2489
I1
s(I78
I24
tp2490
I3
s(I1481
I2653
tp2491
I1
s(I319
I342
tp2492
I3
s(I2819
I2889
tp2493
I3
s(I1565
I1568
tp2494
I1
s(I3585
I2333
tp2495
I3
s(I1238
I2655
tp2496
I5
s(I2839
I2866
tp2497
I3
s(I1515
I1540
tp2498
I3
s(I1514
I1112
tp2499
I1
s(I1029
I402
tp2500
I3
s(I1879
I2498
tp2501
I4
s(I551
I1177
tp2502
I1
s(I2173
I2208
tp2503
I3
s(I977
I338
tp2504
I2
s(I2273
I2323
tp2505
I2
s(I1011
I670
tp2506
I4
s(I764
I813
tp2507
I1
s(I2832
I2867
tp2508
I4
s(I2814
I2889
tp2509
I4
s(I678
I339
tp2510
I2
s(I1010
I992
tp2511
I1
s(I1789
I1746
tp2512
I1
s(I3543
I330
tp2513
I1
s(I1899
I709
tp2514
I1
s(I2302
I2238
tp2515
I3
s(I1062
I992
tp2516
I3
s(I362
I338
tp2517
I2
s(I1
I19
tp2518
I2
s(I774
I813
tp2519
I1
s(I242
I146
tp2520
I3
s(I2292
I2319
tp2521
I1
s(I3596
I3401
tp2522
I2
s(I124
I146
tp2523
I1
s(I1433
I1374
tp2524
I6
s(I2815
I2866
tp2525
I6
s(I1662
I2485
tp2526
I5
s(I1327
I2644
tp2527
I2
s(I2254
I2322
tp2528
I7
s(I2057
I2038
tp2529
I4
s(I1475
I1540
tp2530
I3
s(I2785
I2866
tp2531
I7
s(I1320
I1363
tp2532
I3
s(I2305
I2323
tp2533
I2
s(I3537
I822
tp2534
I3
s(I1315
I1367
tp2535
I5
s(I1983
I2036
tp2536
I3
s(I1267
I1271
tp2537
I6
s(I1813
I273
tp2538
I2
s(I93
I148
tp2539
I1
s(I1028
I402
tp2540
I1
s(I110
I146
tp2541
I4
s(I1699
I2644
tp2542
I3
s(I846
I333
tp2543
I2
s(I1547
I1112
tp2544
I1
s(I8
I19
tp2545
I2
s(I2394
I2334
tp2546
I4
s(I174
I21
tp2547
I5
s(I1815
I2497
tp2548
I2
s(I641
I395
tp2549
I2
s(I96
I150
tp2550
I1
s(I1344
I2645
tp2551
I3
s(I26
I20
tp2552
I7
s(I1333
I417
tp2553
I5
s(I1373
I1375
tp2554
I1
s(I2163
I2208
tp2555
I2
s(I2816
I2866
tp2556
I1
s(I3648
I2471
tp2557
I1
s(I39
I23
tp2558
I2
s(I54
I19
tp2559
I4
s(I220
I271
tp2560
I2
s(I2529
I147
tp2561
I2
s(I649
I1118
tp2562
I1
s(I2685
I2334
tp2563
I3
s(I1630
I2534
tp2564
I4
s(I2524
I146
tp2565
I6
s(I572
I337
tp2566
I2
s(I1893
I709
tp2567
I2
s(I3542
I822
tp2568
I2
s(I348
I2890
tp2569
I3
s(I2957
I399
tp2570
I3
s(I652
I409
tp2571
I2
s(I2414
I2470
tp2572
I1
s(I696
I707
tp2573
I1
s(I1029
I992
tp2574
I3
s(I2749
I1155
tp2575
I2
s(I2719
I1118
tp2576
I1
s(I1353
I417
tp2577
I4
s(I2807
I2868
tp2578
I4
s(I1465
I2640
tp2579
I5
s(I1941
I2037
tp2580
I2
s(I1213
I414
tp2581
I1
s(I607
I2035
tp2582
I2
s(I537
I536
tp2583
I3
s(I2859
I2866
tp2584
I3
s(I773
I813
tp2585
I1
s(I758
I814
tp2586
I1
s(I301
I1105
tp2587
I2
s(I1905
I1144
tp2588
I4
s(I799
I813
tp2589
I1
s(I304
I341
tp2590
I4
s(I2243
I2238
tp2591
I6
s(I2831
I2867
tp2592
I1
s(I551
I534
tp2593
I2
s(I1813
I147
tp2594
I4
s(I1780
I388
tp2595
I3
s(I2169
I2209
tp2596
I3
s(I995
I994
tp2597
I1
s(I965
I2655
tp2598
I3
s(I2166
I416
tp2599
I3
s(I2783
I2889
tp2600
I2
s(I2799
I1109
tp2601
I3
s(I2420
I2334
tp2602
I1
s(I1035
I993
tp2603
I6
s(I2956
I1746
tp2604
I5
s(I2200
I2765
tp2605
I2
s(I668
I641
tp2606
I6
s(I983
I338
tp2607
I1
s(I3550
I338
tp2608
I2
s(I1886
I1144
tp2609
I2
s(I1635
I814
tp2610
I3
s(I307
I341
tp2611
I1
s(I236
I277
tp2612
I2
s(I2312
I2318
tp2613
I2
s(I113
I147
tp2614
I7
s(I177
I21
tp2615
I5
s(I2904
I1159
tp2616
I1
s(I2264
I2318
tp2617
I2
s(I1798
I2764
tp2618
I3
s(I2447
I2334
tp2619
I2
s(I2705
I1095
tp2620
I1
s(I3611
I460
tp2621
I3
s(I1458
I1540
tp2622
I3
s(I492
I991
tp2623
I1
s(I2844
I2868
tp2624
I3
s(I2361
I1409
tp2625
I2
s(I1613
I1706
tp2626
I3
s(I997
I1155
tp2627
I2
s(I2413
I1409
tp2628
I1
s(I289
I342
tp2629
I2
s(I1447
I399
tp2630
I3
s(I1470
I2645
tp2631
I1
s(I844
I826
tp2632
I3
s(I612
I527
tp2633
I5
s(I1001
I991
tp2634
I2
s(I2664
I1610
tp2635
I2
s(I1625
I2769
tp2636
I2
s(I2289
I2319
tp2637
I4
s(I944
I1115
tp2638
I2
s(I2298
I2238
tp2639
I6
s(I1866
I2497
tp2640
I5
s(I1400
I406
tp2641
I2
s(I127
I148
tp2642
I1
s(I3563
I2333
tp2643
I1
s(I8
I2522
tp2644
I1
s(I6
I19
tp2645
I4
s(I1725
I399
tp2646
I2
s(I925
I338
tp2647
I2
s(I2396
I2334
tp2648
I3
s(I1262
I1271
tp2649
I1
s(I2049
I1104
tp2650
I1
s(I255
I201
tp2651
I4
s(I3635
I708
tp2652
I1
s(I3563
I2471
tp2653
I1
s(I1627
I2534
tp2654
I3
s(I1449
I2653
tp2655
I2
s(I208
I277
tp2656
I1
s(I56
I20
tp2657
I4
s(I2246
I2319
tp2658
I2
s(I1413
I1373
tp2659
I3
s(I733
I816
tp2660
I3
s(I845
I854
tp2661
I5
s(I2695
I854
tp2662
I2
s(I3673
I2640
tp2663
I2
s(I759
I816
tp2664
I5
s(I1852
I419
tp2665
I1
s(I1854
I395
tp2666
I1
s(I1416
I1374
tp2667
I7
s(I37
I20
tp2668
I2
s(I2895
I2765
tp2669
I4
s(I792
I823
tp2670
I5
s(I2952
I2332
tp2671
I1
s(I2237
I2318
tp2672
I2
s(I779
I815
tp2673
I4
s(I245
I268
tp2674
I5
s(I690
I395
tp2675
I2
s(I2463
I1409
tp2676
I1
s(I2525
I1096
tp2677
I1
s(I1341
I417
tp2678
I5
s(I1403
I1372
tp2679
I5
s(I3624
I459
tp2680
I1
s(I2042
I2038
tp2681
I1
s(I138
I146
tp2682
I3
s(I654
I641
tp2683
I4
s(I1496
I2645
tp2684
I2
s(I86
I1095
tp2685
I1
s(I43
I19
tp2686
I4
s(I2164
I2208
tp2687
I3
s(I191
I418
tp2688
I2
s(I1423
I406
tp2689
I5
s(I1293
I2765
tp2690
I2
s(I2184
I2209
tp2691
I4
s(I1414
I1372
tp2692
I3
s(I1323
I2645
tp2693
I3
s(I2452
I1409
tp2694
I1
s(I2383
I415
tp2695
I6
s(I3498
I2485
tp2696
I1
s(I2806
I2867
tp2697
I6
s(I1898
I1144
tp2698
I3
s(I1883
I273
tp2699
I1
s(I10
I2522
tp2700
I3
s(I2633
I2322
tp2701
I1
s(I3500
I22
tp2702
I1
s(I1655
I2769
tp2703
I4
s(I1216
I2545
tp2704
I3
s(I3509
I1383
tp2705
I1
s(I2177
I416
tp2706
I4
s(I840
I854
tp2707
I1
s(I656
I707
tp2708
I6
s(I89
I147
tp2709
I5
s(I2779
I2867
tp2710
I5
s(I1767
I1746
tp2711
I4
s(I1696
I418
tp2712
I3
s(I517
I526
tp2713
I1
s(I3623
I460
tp2714
I3
s(I2902
I1746
tp2715
I1
s(I2255
I2322
tp2716
I4
s(I1845
I395
tp2717
I1
s(I2375
I2332
tp2718
I1
s(I1280
I1271
tp2719
I1
s(I1560
I1593
tp2720
I2
s(I843
I2763
tp2721
I2
s(I1588
I419
tp2722
I2
s(I2649
I1375
tp2723
I2
s(I1881
I709
tp2724
I2
s(I559
I533
tp2725
I3
s(I1672
I2645
tp2726
I2
s(I2284
I2319
tp2727
I3
s(I581
I536
tp2728
I6
s(I549
I2035
tp2729
I4
s(I2965
I1118
tp2730
I1
s(I1613
I2769
tp2731
I3
s(I2190
I2209
tp2732
I4
s(I1756
I388
tp2733
I4
s(I914
I988
tp2734
I1
s(I1826
I2498
tp2735
I2
s(I1695
I1109
tp2736
I1
s(I3605
I338
tp2737
I1
s(I2061
I416
tp2738
I5
s(I1829
I419
tp2739
I3
s(I1809
I1746
tp2740
I4
s(I1063
I1155
tp2741
I2
s(I2468
I1159
tp2742
I1
s(I1511
I2640
tp2743
I2
s(I1233
I1244
tp2744
I2
s(I1492
I2645
tp2745
I3
s(I184
I21
tp2746
I3
s(I2009
I2038
tp2747
I1
s(I2184
I416
tp2748
I5
s(I2727
I2647
tp2749
I2
s(I1536
I1177
tp2750
I2
s(I1618
I2534
tp2751
I1
s(I3653
I2868
tp2752
I2
s(I2450
I415
tp2753
I2
s(I1468
I2640
tp2754
I4
s(I1801
I408
tp2755
I2
s(I1358
I1367
tp2756
I1
s(I540
I2035
tp2757
I2
s(I1463
I1540
tp2758
I6
s(I820
I2647
tp2759
I3
s(I1513
I1540
tp2760
I7
s(I1791
I1746
tp2761
I2
s(I1705
I399
tp2762
I2
s(I882
I1115
tp2763
I2
s(I2311
I2322
tp2764
I6
s(I1699
I2485
tp2765
I5
s(I1627
I1383
tp2766
I3
s(I1223
I1247
tp2767
I3
s(I1885
I1144
tp2768
I5
s(I619
I271
tp2769
I1
s(I2658
I987
tp2770
I2
s(I1050
I402
tp2771
I2
s(I661
I409
tp2772
I3
s(I2364
I415
tp2773
I5
s(I1418
I1374
tp2774
I4
s(I557
I536
tp2775
I3
s(I1684
I1109
tp2776
I3
s(I561
I605
tp2777
I5
s(I3610
I349
tp2778
I2
s(I360
I341
tp2779
I2
s(I485
I525
tp2780
I3
s(I2748
I1155
tp2781
I2
s(I1189
I1107
tp2782
I2
s(I2677
I393
tp2783
I4
s(I2382
I1409
tp2784
I1
s(I1516
I2039
tp2785
I2
s(I923
I988
tp2786
I3
s(I948
I407
tp2787
I2
s(I3539
I22
tp2788
I1
s(I1727
I1746
tp2789
I6
s(I2904
I2332
tp2790
I1
s(I847
I852
tp2791
I5
s(I2856
I1109
tp2792
I5
s(I3642
I22
tp2793
I4
s(I1974
I1104
tp2794
I6
s(I1058
I993
tp2795
I1
s(I502
I526
tp2796
I1
s(I1407
I406
tp2797
I4
s(I841
I826
tp2798
I6
s(I1488
I2039
tp2799
I3
s(I1198
I1247
tp2800
I2
s(I2022
I1104
tp2801
I3
s(I7
I20
tp2802
I6
s(I1590
I1555
tp2803
I3
s(I2200
I393
tp2804
I2
s(I1785
I388
tp2805
I2
s(I2408
I2334
tp2806
I3
s(I2437
I401
tp2807
I1
s(I237
I271
tp2808
I4
s(I2022
I341
tp2809
I1
s(I1696
I1702
tp2810
I5
s(I828
I852
tp2811
I4
s(I763
I331
tp2812
I3
s(I1211
I1247
tp2813
I5
s(I1407
I1374
tp2814
I4
s(I751
I815
tp2815
I2
s(I1585
I324
tp2816
I6
s(I2830
I2866
tp2817
I7
s(I1790
I399
tp2818
I2
s(I524
I526
tp2819
I2
s(I2192
I393
tp2820
I4
s(I1701
I1702
tp2821
I5
s(I1243
I399
tp2822
I4
s(I2351
I2334
tp2823
I3
s(I2667
I1706
tp2824
I1
s(I108
I147
tp2825
I5
s(I1451
I2645
tp2826
I2
s(I2045
I2039
tp2827
I1
s(I2918
I823
tp2828
I2
s(I44
I19
tp2829
I4
s(I1789
I408
tp2830
I2
s(I3665
I347
tp2831
I2
s(I2442
I2332
tp2832
I1
s(I1408
I1372
tp2833
I1
s(I198
I467
tp2834
I2
s(I3657
I1371
tp2835
I3
s(I93
I146
tp2836
I3
s(I795
I815
tp2837
I4
s(I2813
I1109
tp2838
I4
s(I568
I536
tp2839
I5
s(I1741
I399
tp2840
I1
s(I255
I279
tp2841
I2
s(I2917
I2644
tp2842
I3
s(I555
I533
tp2843
I3
s(I702
I708
tp2844
I5
s(I2436
I2334
tp2845
I1
s(I483
I526
tp2846
I4
s(I1330
I1367
tp2847
I4
s(I1531
I2039
tp2848
I3
s(I2886
I2889
tp2849
I1
s(I1493
I2039
tp2850
I4
s(I1943
I1104
tp2851
I3
s(I1482
I1540
tp2852
I3
s(I507
I526
tp2853
I2
s(I2380
I1159
tp2854
I1
s(I3674
I822
tp2855
I3
s(I2494
I1367
tp2856
I5
s(I133
I147
tp2857
I3
s(I228
I279
tp2858
I3
s(I580
I1177
tp2859
I2
s(I2729
I1105
tp2860
I1
s(I2799
I2867
tp2861
I2
s(I3635
I641
tp2862
I1
s(I239
I271
tp2863
I2
s(I1874
I2497
tp2864
I4
s(I3642
I24
tp2865
I2
s(I281
I1105
tp2866
I2
s(I1348
I1363
tp2867
I4
s(I541
I2035
tp2868
I7
s(I2353
I2333
tp2869
I3
s(I1841
I2497
tp2870
I3
s(I1660
I418
tp2871
I3
s(I4
I23
tp2872
I2
s(I2441
I401
tp2873
I3
s(I209
I268
tp2874
I3
s(I3650
I2498
tp2875
I1
s(I230
I268
tp2876
I5
s(I1633
I331
tp2877
I2
s(I1046
I992
tp2878
I5
s(I2415
I401
tp2879
I2
s(I827
I826
tp2880
I2
s(I2567
I1109
tp2881
I2
s(I3643
I1371
tp2882
I1
s(I657
I641
tp2883
I4
s(I582
I533
tp2884
I3
s(I451
I21
tp2885
I2
s(I252
I277
tp2886
I2
s(I2034
I1104
tp2887
I2
s(I1584
I987
tp2888
I2
s(I2787
I2890
tp2889
I1
s(I3660
I823
tp2890
I1
s(I1014
I992
tp2891
I3
s(I1591
I1551
tp2892
I2
s(I1745
I1746
tp2893
I3
s(I1665
I2485
tp2894
I3
s(I2056
I1104
tp2895
I7
s(I2221
I2765
tp2896
I4
s(I917
I987
tp2897
I2
s(I54
I2522
tp2898
I3
s(I3507
I324
tp2899
I1
s(I2735
I1375
tp2900
I1
s(I1353
I1367
tp2901
I4
s(I505
I411
tp2902
I4
s(I1048
I994
tp2903
I2
s(I2209
I2765
tp2904
I1
s(I2234
I2322
tp2905
I8
s(I1693
I2644
tp2906
I2
s(I3502
I2333
tp2907
I2
s(I614
I526
tp2908
I5
s(I794
I815
tp2909
I2
s(I2168
I393
tp2910
I5
s(I1993
I416
tp2911
I5
s(I781
I823
tp2912
I2
s(I1443
I406
tp2913
I2
s(I178
I418
tp2914
I5
s(I640
I526
tp2915
I1
s(I886
I338
tp2916
I5
s(I1016
I994
tp2917
I3
s(I2909
I324
tp2918
I2
s(I1012
I992
tp2919
I5
s(I785
I814
tp2920
I1
s(I3601
I271
tp2921
I2
s(I1692
I2645
tp2922
I2
s(I444
I467
tp2923
I3
s(I796
I331
tp2924
I3
s(I981
I1115
tp2925
I2
s(I597
I534
tp2926
I2
s(I3645
I393
tp2927
I6
s(I907
I930
tp2928
I4
s(I569
I2035
tp2929
I4
s(I2392
I415
tp2930
I1
s(I31
I19
tp2931
I3
s(I2063
I2035
tp2932
I3
s(I2957
I1375
tp2933
I3
s(I502
I991
tp2934
I1
s(I2942
I824
tp2935
I3
s(I3632
I460
tp2936
I2
s(I1207
I1107
tp2937
I2
s(I1289
I2208
tp2938
I3
s(I1
I2522
tp2939
I1
s(I685
I409
tp2940
I4
s(I315
I338
tp2941
I1
s(I320
I338
tp2942
I1
s(I469
I1118
tp2943
I1
s(I1229
I1244
tp2944
I3
s(I885
I930
tp2945
I2
s(I1620
I2770
tp2946
I5
s(I309
I1105
tp2947
I2
s(I1624
I331
tp2948
I2
s(I1658
I418
tp2949
I1
s(I1571
I324
tp2950
I5
s(I579
I536
tp2951
I5
s(I1726
I2764
tp2952
I3
s(I47
I22
tp2953
I4
s(I2848
I2867
tp2954
I4
s(I3684
I3433
tp2955
I1
s(I2909
I349
tp2956
I5
s(I103
I147
tp2957
I3
s(I3505
I1373
tp2958
I2
s(I1051
I402
tp2959
I6
s(I3521
I1371
tp2960
I2
s(I2897
I1118
tp2961
I1
s(I2953
I393
tp2962
I2
s(I481
I527
tp2963
I5
s(I2309
I2318
tp2964
I5
s(I1866
I1144
tp2965
I1
s(I1720
I408
tp2966
I2
s(I690
I339
tp2967
I2
s(I1193
I2545
tp2968
I4
s(I2658
I1593
tp2969
I2
s(I1662
I2644
tp2970
I3
s(I1743
I388
tp2971
I1
s(I1534
I1540
tp2972
I1
s(I2797
I2868
tp2973
I3
s(I1196
I406
tp2974
I3
s(I2197
I2209
tp2975
I7
s(I538
I536
tp2976
I3
s(I2494
I417
tp2977
I6
s(I1798
I388
tp2978
I3
s(I2207
I393
tp2979
I3
s(I512
I526
tp2980
I5
s(I3510
I2545
tp2981
I3
s(I1295
I2208
tp2982
I4
s(I2526
I1096
tp2983
I1
s(I1802
I399
tp2984
I4
s(I2280
I2238
tp2985
I4
s(I2044
I2036
tp2986
I2
s(I1678
I2644
tp2987
I3
s(I601
I533
tp2988
I1
s(I1756
I2764
tp2989
I4
s(I2244
I2238
tp2990
I1
s(I2365
I2470
tp2991
I2
s(I2936
I1374
tp2992
I3
s(I3636
I2039
tp2993
I2
s(I519
I527
tp2994
I4
s(I1567
I419
tp2995
I1
s(I2461
I415
tp2996
I2
s(I2372
I401
tp2997
I2
s(I1884
I2498
tp2998
I4
s(I1426
I1373
tp2999
I3
s(I1687
I1109
tp3000
I3
s(I699
I395
tp3001
I2
s(I1626
I2769
tp3002
I3
s(I1311
I1363
tp3003
I4
s(I1308
I417
tp3004
I5
s(I1380
I1375
tp3005
I2
s(I181
I467
tp3006
I2
s(I3649
I2868
tp3007
I1
s(I2289
I2322
tp3008
I4
s(I1694
I2485
tp3009
I3
s(I1679
I2644
tp3010
I4
s(I829
I852
tp3011
I6
s(I1357
I2767
tp3012
I3
s(I2683
I268
tp3013
I3
s(I1848
I1144
tp3014
I4
s(I2659
I336
tp3015
I5
s(I774
I816
tp3016
I4
s(I78
I22
tp3017
I5
s(I1420
I399
tp3018
I2
s(I2708
I2764
tp3019
I2
s(I780
I814
tp3020
I1
s(I2772
I2890
tp3021
I2
s(I1744
I1746
tp3022
I1
s(I1032
I992
tp3023
I2
s(I1016
I1155
tp3024
I2
s(I2007
I2036
tp3025
I3
s(I1676
I1702
tp3026
I5
s(I1303
I2645
tp3027
I4
s(I124
I147
tp3028
I3
s(I12
I2522
tp3029
I1
s(I1832
I273
tp3030
I2
s(I303
I339
tp3031
I1
s(I1466
I2653
tp3032
I3
s(I2505
I339
tp3033
I1
s(I1206
I2655
tp3034
I2
s(I2283
I2323
tp3035
I1
s(I131
I147
tp3036
I2
s(I662
I707
tp3037
I2
s(I563
I337
tp3038
I3
s(I1268
I1270
tp3039
I3
s(I775
I815
tp3040
I2
s(I617
I527
tp3041
I4
s(I2159
I2208
tp3042
I3
s(I2949
I2332
tp3043
I1
s(I2301
I415
tp3044
I1
s(I2407
I2471
tp3045
I3
s(I2053
I2036
tp3046
I1
s(I1897
I273
tp3047
I2
s(I573
I536
tp3048
I5
s(I599
I536
tp3049
I2
s(I1188
I414
tp3050
I1
s(I1409
I1375
tp3051
I3
s(I216
I201
tp3052
I4
s(I87
I147
tp3053
I5
s(I487
I526
tp3054
I4
s(I3614
I3538
tp3055
I1
s(I2466
I1159
tp3056
I1
s(I295
I1144
tp3057
I6
s(I284
I341
tp3058
I4
s(I1021
I993
tp3059
I8
s(I1428
I1372
tp3060
I1
s(I1480
I2653
tp3061
I3
s(I2969
I399
tp3062
I1
s(I2349
I2334
tp3063
I1
s(I1057
I993
tp3064
I3
s(I3606
I855
tp3065
I1
s(I561
I2035
tp3066
I6
s(I178
I140
tp3067
I3
s(I3536
I324
tp3068
I1
s(I180
I21
tp3069
I6
s(I1504
I1112
tp3070
I1
s(I2956
I399
tp3071
I4
s(I2273
I2322
tp3072
I5
s(I3667
I2498
tp3073
I1
s(I1753
I2764
tp3074
I2
s(I1614
I814
tp3075
I4
s(I839
I854
tp3076
I4
s(I1987
I341
tp3077
I2
s(I2775
I2866
tp3078
I3
s(I1856
I2497
tp3079
I3
s(I2876
I2770
tp3080
I4
s(I2394
I2470
tp3081
I4
s(I2247
I2319
tp3082
I2
s(I1062
I993
tp3083
I8
s(I1342
I2645
tp3084
I3
s(I1802
I1746
tp3085
I7
s(I1202
I1107
tp3086
I2
s(I2015
I2035
tp3087
I3
s(I687
I339
tp3088
I2
s(I48
I19
tp3089
I2
s(I1428
I1371
tp3090
I4
s(I1088
I1610
tp3091
I1
s(I1763
I408
tp3092
I1
s(I2667
I2769
tp3093
I1
s(I1086
I399
tp3094
I1
s(I1267
I1270
tp3095
I4
s(I2379
I2334
tp3096
I7
s(I2666
I1610
tp3097
I2
s(I2254
I2323
tp3098
I4
s(I2384
I2334
tp3099
I2
s(I2926
I2322
tp3100
I4
s(I2855
I2866
tp3101
I2
s(I1082
I994
tp3102
I3
s(I2524
I148
tp3103
I4
s(I643
I339
tp3104
I2
s(I3506
I3401
tp3105
I1
s(I802
I824
tp3106
I5
s(I1292
I393
tp3107
I2
s(I585
I2035
tp3108
I3
s(I1978
I2036
tp3109
I1
s(I1338
I417
tp3110
I2
s(I2361
I415
tp3111
I2
s(I2024
I2036
tp3112
I3
s(I1225
I414
tp3113
I2
s(I3562
I2313
tp3114
I1
s(I1578
I336
tp3115
I3
s(I623
I526
tp3116
I3
s(I1454
I2653
tp3117
I5
s(I1765
I2764
tp3118
I3
s(I3544
I1705
tp3119
I1
s(I1399
I1374
tp3120
I5
s(I3679
I349
tp3121
I1
s(I2972
I994
tp3122
I3
s(I2409
I2491
tp3123
I1
s(I1882
I395
tp3124
I1
s(I1737
I388
tp3125
I1
s(I542
I2035
tp3126
I6
s(I503
I525
tp3127
I3
s(I1762
I388
tp3128
I1
s(I1781
I408
tp3129
I1
s(I2810
I2866
tp3130
I5
s(I192
I21
tp3131
I5
s(I3542
I823
tp3132
I2
s(I1491
I2653
tp3133
I2
s(I1942
I1104
tp3134
I7
s(I782
I813
tp3135
I1
s(I1242
I2655
tp3136
I1
s(I3540
I1372
tp3137
I1
s(I1616
I1383
tp3138
I3
s(I596
I2035
tp3139
I5
s(I1385
I1375
tp3140
I4
s(I2253
I2238
tp3141
I1
s(I2815
I1109
tp3142
I3
s(I1885
I709
tp3143
I3
s(I928
I407
tp3144
I2
s(I978
I988
tp3145
I1
s(I1445
I1374
tp3146
I2
s(I194
I2653
tp3147
I3
s(I2246
I2322
tp3148
I3
s(I608
I533
tp3149
I1
s(I1714
I2764
tp3150
I4
s(I2276
I2323
tp3151
I3
s(I3545
I2333
tp3152
I2
s(I754
I815
tp3153
I2
s(I1824
I147
tp3154
I3
s(I3585
I2471
tp3155
I3
s(I650
I339
tp3156
I2
s(I1329
I417
tp3157
I5
s(I1903
I395
tp3158
I1
s(I3630
I705
tp3159
I1
s(I2523
I1105
tp3160
I1
s(I2357
I2334
tp3161
I3
s(I271
I339
tp3162
I1
s(I313
I342
tp3163
I3
s(I365
I340
tp3164
I1
s(I1949
I1104
tp3165
I4
s(I779
I816
tp3166
I2
s(I600
I2035
tp3167
I5
s(I1913
I1144
tp3168
I2
s(I1287
I2765
tp3169
I3
s(I2484
I1610
tp3170
I2
s(I166
I21
tp3171
I5
s(I2019
I416
tp3172
I3
s(I3529
I459
tp3173
I3
s(I229
I277
tp3174
I2
s(I1015
I993
tp3175
I3
s(I656
I409
tp3176
I5
s(I2171
I416
tp3177
I5
s(I3611
I459
tp3178
I3
s(I3540
I1371
tp3179
I2
s(I113
I146
tp3180
I1
s(I222
I268
tp3181
I3
s(I1864
I1144
tp3182
I2
s(I1054
I992
tp3183
I3
s(I943
I1115
tp3184
I2
s(I1686
I1702
tp3185
I2
s(I3495
I536
tp3186
I1
s(I3605
I3401
tp3187
I1
s(I1231
I1245
tp3188
I3
s(I1680
I1109
tp3189
I3
s(I2663
I1610
tp3190
I2
s(I2701
I19
tp3191
I1
s(I2706
I1096
tp3192
I1
s(I669
I708
tp3193
I3
s(I1870
I2498
tp3194
I4
s(I1739
I1746
tp3195
I1
s(I2243
I2318
tp3196
I5
s(I51
I21
tp3197
I1
s(I126
I140
tp3198
I3
s(I883
I988
tp3199
I2
s(I2404
I2470
tp3200
I3
s(I257
I268
tp3201
I3
s(I1308
I1367
tp3202
I4
s(I3514
I194
tp3203
I1
s(I1741
I1746
tp3204
I5
s(I701
I409
tp3205
I2
s(I77
I20
tp3206
I2
s(I2380
I2332
tp3207
I1
s(I234
I278
tp3208
I3
s(I207
I271
tp3209
I3
s(I3529
I460
tp3210
I3
s(I1519
I1112
tp3211
I1
s(I3615
I324
tp3212
I1
s(I1684
I146
tp3213
I1
s(I57
I24
tp3214
I3
s(I2270
I2238
tp3215
I5
s(I1710
I408
tp3216
I3
s(I1681
I418
tp3217
I3
s(I924
I930
tp3218
I4
s(I2744
I1155
tp3219
I2
s(I2266
I2318
tp3220
I4
s(I1572
I1593
tp3221
I3
s(I3573
I337
tp3222
I1
s(I1232
I403
tp3223
I1
s(I1658
I1702
tp3224
I3
s(I1825
I2497
tp3225
I4
s(I1400
I1374
tp3226
I6
s(I1310
I417
tp3227
I2
s(I461
I407
tp3228
I4
s(I213
I278
tp3229
I1
s(I2726
I417
tp3230
I6
s(I1742
I1746
tp3231
I6
s(I3572
I641
tp3232
I3
s(I2182
I2208
tp3233
I3
s(I550
I533
tp3234
I3
s(I2
I23
tp3235
I1
s(I1450
I1112
tp3236
I2
s(I792
I824
tp3237
I3
s(I2189
I416
tp3238
I4
s(I1863
I330
tp3239
I2
s(I3647
I2868
tp3240
I1
s(I1211
I2655
tp3241
I4
s(I1815
I1144
tp3242
I2
s(I1259
I1269
tp3243
I2
s(I842
I852
tp3244
I8
s(I664
I1118
tp3245
I1
s(I607
I605
tp3246
I1
s(I2531
I22
tp3247
I5
s(I3624
I460
tp3248
I1
s(I1288
I2209
tp3249
I7
s(I2448
I2334
tp3250
I4
s(I2303
I2318
tp3251
I2
s(I2778
I2889
tp3252
I4
s(I621
I411
tp3253
I2
s(I241
I268
tp3254
I1
s(I3506
I338
tp3255
I1
s(I560
I1177
tp3256
I2
s(I2396
I401
tp3257
I3
s(I3544
I337
tp3258
I1
s(I776
I816
tp3259
I4
s(I2388
I401
tp3260
I1
s(I492
I526
tp3261
I4
s(I3666
I3501
tp3262
I1
s(I363
I324
tp3263
I2
s(I977
I3401
tp3264
I2
s(I1665
I2661
tp3265
I3
s(I2756
I814
tp3266
I3
s(I1850
I2498
tp3267
I2
s(I2814
I2890
tp3268
I4
s(I895
I930
tp3269
I2
s(I1515
I2645
tp3270
I1
s(I1487
I1540
tp3271
I4
s(I2240
I2238
tp3272
I2
s(I462
I1270
tp3273
I5
s(I3580
I147
tp3274
I2
s(I1490
I2039
tp3275
I3
s(I1051
I992
tp3276
I8
s(I2181
I393
tp3277
I7
s(I1906
I1144
tp3278
I4
s(I1764
I388
tp3279
I1
s(I456
I21
tp3280
I2
s(I1663
I1702
tp3281
I5
s(I588
I2035
tp3282
I7
s(I637
I526
tp3283
I4
s(I743
I816
tp3284
I3
s(I1674
I2644
tp3285
I1
s(I780
I331
tp3286
I2
s(I185
I418
tp3287
I3
s(I1266
I1269
tp3288
I4
s(I1187
I2545
tp3289
I3
s(I2831
I1109
tp3290
I2
s(I91
I150
tp3291
I1
s(I628
I525
tp3292
I7
s(I1091
I994
tp3293
I3
s(I1744
I408
tp3294
I2
s(I683
I708
tp3295
I4
s(I1794
I1705
tp3296
I4
s(I1685
I418
tp3297
I4
s(I2231
I416
tp3298
I1
s(I1443
I1374
tp3299
I5
s(I969
I407
tp3300
I4
s(I347
I1104
tp3301
I1
s(I1837
I273
tp3302
I1
s(I914
I930
tp3303
I2
s(I80
I20
tp3304
I2
s(I973
I930
tp3305
I4
s(I355
I337
tp3306
I1
s(I2853
I1109
tp3307
I7
s(I547
I536
tp3308
I5
s(I2174
I2209
tp3309
I2
s(I1361
I1363
tp3310
I3
s(I558
I2035
tp3311
I4
s(I2262
I2319
tp3312
I4
s(I1550
I1593
tp3313
I4
s(I62
I23
tp3314
I1
s(I27
I19
tp3315
I3
s(I1517
I2640
tp3316
I5
s(I2180
I2208
tp3317
I2
s(I1452
I2653
tp3318
I5
s(I1521
I1112
tp3319
I2
s(I1797
I399
tp3320
I5
s(I1223
I2655
tp3321
I3
s(I610
I527
tp3322
I2
s(I883
I407
tp3323
I2
s(I1415
I406
tp3324
I1
s(I1897
I147
tp3325
I4
s(I845
I852
tp3326
I5
s(I1486
I2653
tp3327
I4
s(I546
I605
tp3328
I2
s(I2468
I2332
tp3329
I1
s(I1488
I1540
tp3330
I4
s(I88
I146
tp3331
I5
s(I658
I409
tp3332
I4
s(I2365
I2334
tp3333
I2
s(I2425
I2470
tp3334
I3
s(I1258
I1269
tp3335
I4
s(I494
I525
tp3336
I3
s(I2367
I401
tp3337
I2
s(I1429
I406
tp3338
I4
s(I3682
I22
tp3339
I3
s(I2807
I2866
tp3340
I3
s(I2963
I813
tp3341
I1
s(I2176
I393
tp3342
I4
s(I2711
I2764
tp3343
I2
s(I606
I536
tp3344
I4
s(I2397
I2470
tp3345
I1
s(I35
I24
tp3346
I3
s(I1717
I399
tp3347
I1
s(I443
I468
tp3348
I2
s(I3612
I2866
tp3349
I1
s(I1978
I416
tp3350
I5
s(I1817
I1144
tp3351
I7
s(I892
I988
tp3352
I1
s(I2913
I526
tp3353
I1
s(I1893
I1144
tp3354
I2
s(I1429
I1374
tp3355
I8
s(I1986
I416
tp3356
I4
s(I1577
I987
tp3357
I1
s(I1615
I1706
tp3358
I3
s(I2698
I2497
tp3359
I3
s(I1783
I408
tp3360
I2
s(I2061
I2036
tp3361
I1
s(I1850
I147
tp3362
I3
s(I1294
I393
tp3363
I10
s(I2688
I2332
tp3364
I1
s(I108
I149
tp3365
I2
s(I2846
I1109
tp3366
I5
s(I756
I824
tp3367
I5
s(I2405
I401
tp3368
I1
s(I64
I19
tp3369
I4
s(I1333
I1367
tp3370
I4
s(I2702
I1095
tp3371
I1
s(I2194
I2208
tp3372
I2
s(I2929
I418
tp3373
I2
s(I2748
I994
tp3374
I2
s(I1004
I1155
tp3375
I2
s(I2859
I1109
tp3376
I3
s(I295
I395
tp3377
I1
s(I2955
I146
tp3378
I3
s(I280
I341
tp3379
I1
s(I1018
I402
tp3380
I1
s(I1504
I2653
tp3381
I4
s(I1186
I414
tp3382
I3
s(I659
I339
tp3383
I2
s(I881
I988
tp3384
I3
s(I129
I141
tp3385
I1
s(I2179
I2209
tp3386
I2
s(I1360
I2493
tp3387
I3
s(I1806
I408
tp3388
I5
s(I2972
I1155
tp3389
I2
s(I618
I526
tp3390
I5
s(I106
I148
tp3391
I3
s(I2834
I2866
tp3392
I3
s(I1430
I1375
tp3393
I1
s(I1711
I399
tp3394
I3
s(I2183
I393
tp3395
I4
s(I2495
I395
tp3396
I1
s(I1814
I2498
tp3397
I4
s(I2431
I2471
tp3398
I3
s(I1309
I417
tp3399
I2
s(I506
I407
tp3400
I2
s(I2045
I2038
tp3401
I1
s(I1037
I402
tp3402
I2
s(I700
I339
tp3403
I2
s(I742
I813
tp3404
I1
s(I2795
I1109
tp3405
I3
s(I1816
I2497
tp3406
I6
s(I1532
I1112
tp3407
I2
s(I2718
I393
tp3408
I6
s(I588
I533
tp3409
I1
s(I2848
I1109
tp3410
I8
s(I2793
I2867
tp3411
I5
s(I685
I707
tp3412
I7
s(I2632
I417
tp3413
I2
s(I1393
I1374
tp3414
I4
s(I2371
I2334
tp3415
I6
s(I2282
I2322
tp3416
I9
s(I2782
I2866
tp3417
I3
s(I3539
I3433
tp3418
I1
s(I1874
I419
tp3419
I1
s(I940
I407
tp3420
I4
s(I232
I271
tp3421
I1
s(I2668
I814
tp3422
I6
s(I1266
I342
tp3423
I1
s(I3674
I823
tp3424
I3
s(I884
I930
tp3425
I5
s(I2794
I2890
tp3426
I3
s(I562
I337
tp3427
I2
s(I3492
I336
tp3428
I2
s(I2659
I1568
tp3429
I1
s(I2262
I2322
tp3430
I3
s(I1719
I1746
tp3431
I1
s(I3614
I261
tp3432
I1
s(I1582
I419
tp3433
I4
s(I2901
I1159
tp3434
I1
s(I518
I271
tp3435
I6
s(I1474
I1540
tp3436
I3
s(I2906
I408
tp3437
I4
s(I2428
I401
tp3438
I1
s(I1459
I2640
tp3439
I5
s(I290
I341
tp3440
I4
s(I2202
I393
tp3441
I5
s(I2167
I393
tp3442
I7
s(I1036
I402
tp3443
I2
s(I99
I146
tp3444
I3
s(I2885
I1109
tp3445
I5
s(I1337
I2644
tp3446
I1
s(I450
I418
tp3447
I3
s(I584
I337
tp3448
I2
s(I565
I337
tp3449
I2
s(I1911
I1144
tp3450
I6
s(I1215
I2655
tp3451
I3
s(I2434
I401
tp3452
I1
s(I550
I2035
tp3453
I4
s(I20
I2764
tp3454
I2
s(I1091
I1155
tp3455
I2
s(I3590
I1373
tp3456
I1
s(I3503
I459
tp3457
I3
s(I672
I409
tp3458
I2
s(I692
I641
tp3459
I4
s(I1185
I1244
tp3460
I2
s(I884
I988
tp3461
I4
s(I2433
I2470
tp3462
I2
s(I1824
I330
tp3463
I2
s(I208
I271
tp3464
I1
s(I1305
I2767
tp3465
I2
s(I1014
I993
tp3466
I5
s(I1518
I2498
tp3467
I3
s(I1043
I670
tp3468
I4
s(I197
I21
tp3469
I5
s(I1693
I1702
tp3470
I2
s(I1503
I1540
tp3471
I4
s(I1576
I1551
tp3472
I2
s(I574
I533
tp3473
I1
s(I1437
I1374
tp3474
I3
s(I586
I2035
tp3475
I7
s(I1184
I403
tp3476
I1
s(I2854
I2890
tp3477
I3
s(I2172
I393
tp3478
I8
s(I2924
I467
tp3479
I4
s(I1320
I2644
tp3480
I2
s(I2946
I534
tp3481
I3
s(I2416
I1159
tp3482
I1
s(I755
I813
tp3483
I1
s(I1625
I1706
tp3484
I1
s(I2058
I2038
tp3485
I3
s(I1057
I670
tp3486
I3
s(I616
I271
tp3487
I5
s(I1887
I2497
tp3488
I5
s(I1827
I1144
tp3489
I2
s(I1042
I992
tp3490
I3
s(I2411
I2334
tp3491
I3
s(I1623
I2769
tp3492
I3
s(I63
I24
tp3493
I2
s(I608
I2035
tp3494
I7
s(I1398
I399
tp3495
I1
s(I1547
I2653
tp3496
I1
s(I2757
I1610
tp3497
I2
s(I2284
I2322
tp3498
I2
s(I2975
I534
tp3499
I3
s(I889
I1115
tp3500
I2
s(I1520
I2645
tp3501
I1
s(I833
I852
tp3502
I3
s(I3567
I3433
tp3503
I1
s(I2166
I2209
tp3504
I2
s(I3505
I1371
tp3505
I2
s(I1433
I406
tp3506
I2
s(I511
I526
tp3507
I5
s(I3589
I670
tp3508
I1
s(I228
I201
tp3509
I4
s(I654
I708
tp3510
I4
s(I1082
I1155
tp3511
I2
s(I3524
I2471
tp3512
I1
s(I1645
I2534
tp3513
I3
s(I683
I641
tp3514
I4
s(I243
I268
tp3515
I2
s(I1334
I2493
tp3516
I4
s(I120
I140
tp3517
I2
s(I311
I336
tp3518
I2
s(I2959
I526
tp3519
I6
s(I1209
I406
tp3520
I2
s(I1631
I1610
tp3521
I2
s(I1455
I2039
tp3522
I1
s(I109
I150
tp3523
I1
s(I3676
I2037
tp3524
I2
s(I1212
I2545
tp3525
I4
s(I315
I341
tp3526
I4
s(I562
I536
tp3527
I5
s(I1423
I1374
tp3528
I9
s(I490
I527
tp3529
I2
s(I606
I337
tp3530
I2
s(I1467
I1540
tp3531
I3
s(I165
I21
tp3532
I6
s(I2459
I2334
tp3533
I6
s(I2884
I1109
tp3534
I2
s(I651
I409
tp3535
I2
s(I1985
I1104
tp3536
I3
s(I302
I342
tp3537
I3
s(I1580
I1551
tp3538
I2
s(I448
I467
tp3539
I4
s(I221
I201
tp3540
I5
s(I3640
I347
tp3541
I1
s(I481
I526
tp3542
I1
s(I2688
I1159
tp3543
I1
s(I836
I826
tp3544
I4
s(I2730
I1115
tp3545
I2
s(I508
I411
tp3546
I2
s(I1549
I2334
tp3547
I4
s(I932
I930
tp3548
I4
s(I128
I1096
tp3549
I1
s(I25
I23
tp3550
I2
s(I3659
I459
tp3551
I1
s(I172
I418
tp3552
I5
s(I874
I853
tp3553
I1
s(I190
I469
tp3554
I2
s(I1655
I1706
tp3555
I4
s(I1200
I1244
tp3556
I2
s(I851
I852
tp3557
I3
s(I1709
I388
tp3558
I2
s(I897
I987
tp3559
I2
s(I219
I268
tp3560
I1
s(I1804
I408
tp3561
I2
s(I2169
I416
tp3562
I4
s(I316
I340
tp3563
I2
s(I101
I149
tp3564
I2
s(I2308
I2322
tp3565
I1
s(I1638
I814
tp3566
I2
s(I1620
I814
tp3567
I5
s(I3658
I2498
tp3568
I2
s(I1191
I2655
tp3569
I4
s(I2893
I271
tp3570
I3
s(I1659
I2644
tp3571
I6
s(I2830
I1109
tp3572
I4
s(I1440
I399
tp3573
I2
s(I1500
I2640
tp3574
I3
s(I2631
I268
tp3575
I6
s(I1019
I402
tp3576
I2
s(I3531
I3401
tp3577
I1
s(I1689
I1702
tp3578
I1
s(I2440
I2334
tp3579
I1
s(I3619
I338
tp3580
I1
s(I221
I279
tp3581
I3
s(I1644
I2769
tp3582
I5
s(I2252
I2238
tp3583
I6
s(I996
I1155
tp3584
I2
s(I1566
I1551
tp3585
I2
s(I45
I20
tp3586
I6
s(I2371
I401
tp3587
I1
s(I72
I2522
tp3588
I3
s(I2690
I401
tp3589
I3
s(I1622
I1610
tp3590
I1
s(I2973
I991
tp3591
I1
s(I445
I21
tp3592
I3
s(I2416
I2332
tp3593
I1
s(I563
I536
tp3594
I6
s(I3558
I459
tp3595
I1
s(I87
I149
tp3596
I2
s(I2689
I2470
tp3597
I2
s(I3670
I853
tp3598
I1
s(I1564
I987
tp3599
I2
s(I1837
I147
tp3600
I3
s(I1322
I1367
tp3601
I5
s(I172
I140
tp3602
I3
s(I1011
I993
tp3603
I4
s(I2238
I2322
tp3604
I7
s(I1453
I2653
tp3605
I3
s(I1777
I1746
tp3606
I4
s(I321
I341
tp3607
I4
s(I1487
I2645
tp3608
I3
s(I1427
I1372
tp3609
I2
s(I3668
I22
tp3610
I1
s(I768
I815
tp3611
I4
s(I489
I527
tp3612
I5
s(I1673
I418
tp3613
I4
s(I1188
I2545
tp3614
I1
s(I1946
I2038
tp3615
I1
s(I3621
I3538
tp3616
I1
s(I2451
I2491
tp3617
I1
s(I1561
I324
tp3618
I1
s(I2781
I2866
tp3619
I5
s(I674
I409
tp3620
I3
s(I1869
I147
tp3621
I3
s(I1579
I1551
tp3622
I2
s(I2283
I2322
tp3623
I2
s(I3577
I823
tp3624
I1
s(I1434
I399
tp3625
I4
s(I520
I526
tp3626
I5
s(I546
I2035
tp3627
I2
s(I2165
I393
tp3628
I3
s(I3554
I2037
tp3629
I1
s(I2798
I2866
tp3630
I5
s(I2565
I146
tp3631
I1
s(I2775
I2868
tp3632
I4
s(I1219
I2655
tp3633
I2
s(I1697
I1109
tp3634
I1
s(I1764
I2764
tp3635
I1
s(I44
I2522
tp3636
I3
s(I2771
I2764
tp3637
I4
s(I212
I271
tp3638
I3
s(I1809
I399
tp3639
I4
s(I1851
I419
tp3640
I1
s(I1713
I1746
tp3641
I4
s(I300
I341
tp3642
I1
s(I2185
I2208
tp3643
I2
s(I2914
I2332
tp3644
I1
s(I251
I268
tp3645
I6
s(I689
I395
tp3646
I3
s(I799
I816
tp3647
I6
s(I2959
I991
tp3648
I2
s(I1021
I992
tp3649
I3
s(I2052
I1104
tp3650
I7
s(I586
I533
tp3651
I1
s(I2822
I2866
tp3652
I4
s(I2749
I994
tp3653
I3
s(I2020
I2038
tp3654
I3
s(I1712
I399
tp3655
I1
s(I1019
I991
tp3656
I1
s(I3519
I2644
tp3657
I1
s(I1324
I2647
tp3658
I3
s(I2724
I1118
tp3659
I1
s(I2906
I1746
tp3660
I3
s(I2855
I2868
tp3661
I3
s(I3652
I3501
tp3662
I1
s(I2367
I2334
tp3663
I5
s(I1649
I2534
tp3664
I3
s(I2031
I2039
tp3665
I2
s(I2196
I2208
tp3666
I3
s(I1416
I406
tp3667
I3
s(I1474
I2645
tp3668
I2
s(I665
I339
tp3669
I3
s(I1550
I987
tp3670
I1
s(I2536
I2522
tp3671
I2
s(I962
I407
tp3672
I2
s(I1641
I331
tp3673
I1
s(I3613
I24
tp3674
I1
s(I935
I1115
tp3675
I2
s(I849
I854
tp3676
I4
s(I2451
I1409
tp3677
I4
s(I570
I2035
tp3678
I4
s(I1856
I2498
tp3679
I4
s(I1015
I670
tp3680
I3
s(I122
I148
tp3681
I4
s(I322
I338
tp3682
I1
s(I904
I988
tp3683
I3
s(I1766
I1705
tp3684
I2
s(I1657
I1383
tp3685
I2
s(I1838
I2497
tp3686
I3
s(I1485
I2039
tp3687
I1
s(I2646
I418
tp3688
I7
s(I1498
I1540
tp3689
I5
s(I2798
I1109
tp3690
I2
s(I1666
I418
tp3691
I5
s(I1311
I2645
tp3692
I3
s(I2198
I2208
tp3693
I5
s(I783
I815
tp3694
I2
s(I594
I1177
tp3695
I2
s(I1782
I388
tp3696
I4
s(I2926
I2323
tp3697
I4
s(I137
I149
tp3698
I2
s(I3550
I3401
tp3699
I2
s(I1528
I2039
tp3700
I2
s(I1482
I2039
tp3701
I3
s(I1587
I419
tp3702
I3
s(I2423
I1409
tp3703
I2
s(I1470
I1540
tp3704
I5
s(I2390
I1409
tp3705
I1
s(I1299
I393
tp3706
I8
s(I3594
I194
tp3707
I1
s(I1817
I395
tp3708
I1
s(I1006
I991
tp3709
I2
s(I2691
I2334
tp3710
I5
s(I3404
I338
tp3711
I2
s(I947
I930
tp3712
I1
s(I2421
I2470
tp3713
I2
s(I554
I605
tp3714
I3
s(I2777
I2889
tp3715
I3
s(I2721
I1118
tp3716
I1
s(I2742
I1155
tp3717
I2
s(I1024
I992
tp3718
I5
s(I159
I1096
tp3719
I1
s(I692
I707
tp3720
I3
s(I288
I340
tp3721
I1
s(I2836
I1109
tp3722
I7
s(I2063
I1104
tp3723
I4
s(I2786
I2890
tp3724
I2
s(I3673
I2498
tp3725
I2
s(I2209
I393
tp3726
I1
s(I1973
I1104
tp3727
I1
s(I1531
I1540
tp3728
I4
s(I624
I526
tp3729
I3
s(I2257
I2318
tp3730
I5
s(I739
I815
tp3731
I2
s(I1709
I2764
tp3732
I2
s(I650
I395
tp3733
I2
s(I3607
I330
tp3734
I2
s(I192
I468
tp3735
I2
s(I1296
I393
tp3736
I2
s(I1222
I1244
tp3737
I3
s(I1301
I1367
tp3738
I4
s(I3520
I140
tp3739
I1
s(I679
I339
tp3740
I1
s(I455
I459
tp3741
I2
s(I2827
I1109
tp3742
I10
s(I3627
I271
tp3743
I2
s(I2269
I2319
tp3744
I2
s(I179
I469
tp3745
I1
s(I2203
I2209
tp3746
I2
s(I1230
I1247
tp3747
I4
s(I830
I852
tp3748
I2
s(I885
I988
tp3749
I1
s(I924
I988
tp3750
I3
s(I1259
I1270
tp3751
I2
s(I1189
I403
tp3752
I1
s(I892
I930
tp3753
I2
s(I966
I930
tp3754
I2
s(I1049
I993
tp3755
I3
s(I1034
I993
tp3756
I3
s(I2242
I2319
tp3757
I1
s(I1214
I2655
tp3758
I7
s(I2271
I2238
tp3759
I1
s(I2354
I1409
tp3760
I2
s(I1452
I1112
tp3761
I2
s(I657
I708
tp3762
I4
s(I915
I2655
tp3763
I3
s(I2390
I415
tp3764
I1
s(I204
I268
tp3765
I7
s(I636
I271
tp3766
I5
s(I450
I140
tp3767
I3
s(I2427
I2334
tp3768
I2
s(I1199
I1107
tp3769
I2
s(I922
I987
tp3770
I2
s(I1197
I1247
tp3771
I7
s(I57
I22
tp3772
I4
s(I2760
I467
tp3773
I1
s(I1054
I993
tp3774
I7
s(I198
I21
tp3775
I3
s(I1501
I2653
tp3776
I4
s(I2414
I2334
tp3777
I1
s(I1778
I399
tp3778
I4
s(I3549
I3433
tp3779
I1
s(I925
I2655
tp3780
I2
s(I2839
I2868
tp3781
I4
s(I1056
I994
tp3782
I4
s(I2187
I2208
tp3783
I1
s(I223
I278
tp3784
I2
s(I632
I525
tp3785
I5
s(I3584
I2039
tp3786
I2
s(I874
I855
tp3787
I1
s(I107
I148
tp3788
I1
s(I213
I268
tp3789
I3
s(I2407
I2333
tp3790
I3
s(I126
I141
tp3791
I1
s(I1786
I1746
tp3792
I1
s(I1985
I341
tp3793
I1
s(I2921
I1155
tp3794
I2
s(I2665
I814
tp3795
I5
s(I834
I854
tp3796
I5
s(I478
I526
tp3797
I1
s(I1059
I992
tp3798
I2
s(I2722
I1118
tp3799
I1
s(I2427
I2470
tp3800
I2
s(I344
I324
tp3801
I1
s(I125
I150
tp3802
I1
s(I2809
I2868
tp3803
I2
s(I1739
I408
tp3804
I2
s(I2164
I393
tp3805
I3
s(I2170
I393
tp3806
I3
s(I3559
I337
tp3807
I2
s(I187
I468
tp3808
I2
s(I3508
I143
tp3809
I3
s(I1775
I399
tp3810
I3
s(I283
I342
tp3811
I3
s(I3566
I822
tp3812
I2
s(I658
I707
tp3813
I7
s(I1891
I419
tp3814
I3
s(I98
I1096
tp3815
I1
s(I1733
I1746
tp3816
I4
s(I2221
I393
tp3817
I6
s(I48
I2522
tp3818
I1
s(I2062
I2645
tp3819
I1
s(I1413
I1371
tp3820
I3
s(I182
I459
tp3821
I5
s(I238
I201
tp3822
I5
s(I576
I605
tp3823
I3
s(I519
I407
tp3824
I2
s(I2236
I2323
tp3825
I2
s(I3650
I2640
tp3826
I1
s(I1386
I1374
tp3827
I2
s(I1996
I416
tp3828
I4
s(I2577
I2038
tp3829
I3
s(I2
I20
tp3830
I1
s(I2822
I1109
tp3831
I1
s(I645
I339
tp3832
I2
s(I560
I534
tp3833
I2
s(I575
I534
tp3834
I3
s(I2742
I994
tp3835
I3
s(I2025
I2038
tp3836
I6
s(I49
I23
tp3837
I2
s(I2413
I415
tp3838
I1
s(I1617
I814
tp3839
I4
s(I3618
I708
tp3840
I3
s(I2193
I393
tp3841
I7
s(I171
I459
tp3842
I5
s(I542
I533
tp3843
I3
s(I2054
I2036
tp3844
I3
s(I2932
I393
tp3845
I7
s(I1835
I2498
tp3846
I3
s(I2370
I2334
tp3847
I5
s(I286
I343
tp3848
I2
s(I1632
I2770
tp3849
I4
s(I1224
I2655
tp3850
I1
s(I848
I826
tp3851
I3
s(I2782
I2868
tp3852
I4
s(I3652
I2868
tp3853
I1
s(I895
I988
tp3854
I1
s(I3576
I349
tp3855
I3
s(I2265
I2322
tp3856
I7
s(I1497
I2653
tp3857
I2
s(I903
I987
tp3858
I2
s(I61
I20
tp3859
I6
s(I1329
I1367
tp3860
I4
s(I1871
I2497
tp3861
I5
s(I1193
I414
tp3862
I1
s(I2838
I1109
tp3863
I3
s(I293
I342
tp3864
I3
s(I1302
I1367
tp3865
I5
s(I477
I271
tp3866
I5
s(I1302
I417
tp3867
I6
s(I1205
I1107
tp3868
I1
s(I500
I525
tp3869
I5
s(I317
I1105
tp3870
I2
s(I2048
I416
tp3871
I3
s(I1855
I147
tp3872
I3
s(I1582
I1593
tp3873
I3
s(I645
I395
tp3874
I2
s(I831
I826
tp3875
I3
s(I1489
I2498
tp3876
I4
s(I3530
I824
tp3877
I2
s(I229
I271
tp3878
I2
s(I211
I268
tp3879
I2
s(I1796
I408
tp3880
I2
s(I287
I340
tp3881
I2
s(I1726
I388
tp3882
I3
s(I1860
I2497
tp3883
I3
s(I2059
I1104
tp3884
I4
s(I3492
I1555
tp3885
I2
s(I3543
I147
tp3886
I1
s(I1682
I2661
tp3887
I2
s(I1685
I2768
tp3888
I1
s(I972
I338
tp3889
I4
s(I2791
I1109
tp3890
I5
s(I1989
I416
tp3891
I3
s(I1187
I1245
tp3892
I3
s(I2249
I2322
tp3893
I5
s(I360
I336
tp3894
I2
s(I1840
I395
tp3895
I1
s(I978
I930
tp3896
I2
s(I62
I20
tp3897
I1
s(I528
I605
tp3898
I4
s(I2213
I2765
tp3899
I4
s(I742
I816
tp3900
I5
s(I1460
I2653
tp3901
I4
s(I1745
I408
tp3902
I3
s(I258
I271
tp3903
I3
s(I1644
I1706
tp3904
I4
s(I706
I708
tp3905
I5
s.